

HI-TECH Software PIC LITE Macro Assembler V9.70 build 5239 
                                                                                               Fri Jan 07 00:25:34 2011

HI-TECH Software Omniscient Code Generator (Lite mode) build 5239
     1  0000                     opt subtitle "HI-TECH Software Omniscient Code Generator (Lite mode) build 5239"
     2                           
     3                           opt pagewidth 120
     4                           
     5                           	opt lm
     6                           
     7                           	processor	16F886
     8                           clrc	macro
     9                           	bcf	3,0
    10  0000                     	endm
    11                           clrz	macro
    12                           	bcf	3,2
    13  0000                     	endm
    14                           setc	macro
    15                           	bsf	3,0
    16  0000                     	endm
    17                           setz	macro
    18                           	bsf	3,2
    19  0000                     	endm
    20                           skipc	macro
    21                           	btfss	3,0
    22  0000                     	endm
    23                           skipz	macro
    24                           	btfss	3,2
    25  0000                     	endm
    26                           skipnc	macro
    27                           	btfsc	3,0
    28  0000                     	endm
    29                           skipnz	macro
    30                           	btfsc	3,2
    31  0000                     	endm
    32  0000                     indf	equ	0
    33  0000                     indf0	equ	0
    34  0002                     pc	equ	2
    35  0002                     pcl	equ	2
    36  0003                     status	equ	3
    37  0004                     fsr	equ	4
    38  0004                     fsr0	equ	4
    39  0001                     c	equ	1
    40  0000                     z	equ	0
    41  000A                     pclath	equ	10
    42                           # 25 "C:\Users\denjo\Documents\PIC\infrated_ray\ir_main.c"
    43                           	psect config,class=CONFIG,delta=2 ;#
    44                           # 25 "C:\Users\denjo\Documents\PIC\infrated_ray\ir_main.c"
    45  2007  2CF4               	dw 0x3FFC & 0x3FF7 & 0x3FFF & 0x3FFF & 0x3CFF & 0x2FFF ;#
    46                           ;COMMON:	_main->_IR_NEC_format
    47                           ;COMMON:	_IR_NEC_format->_IR_NEC_ReaderCode_Send
    48                           ;BANK0:	_IR_NEC_ReaderCode_Send->__delay
    49                           ;BANK0:	_IR_NEC_format->__delay
    50                           ;BANK0:	_main->_lcd_put_ir_format
    51                           ;COMMON:	_lcd_put_ir_format->_lcd_goto_posi
    52                           ;BANK0:	_lcd_goto_posi->__delay
    53                           ;BANK0:	_lcd_put_ir_format->_lcd_put_char
    54                           ;BANK0:	_lcd_put_char->__delay
    55                           	FNCALL	_main,_led_control
    56                           	FNCALL	_main,_key_input_check
    57                           	FNCALL	_main,_cpu_sleep
    58                           	FNCALL	_main,_ir_out_start
    59                           	FNCALL	_main,_ir_recieve
    60                           	FNCALL	_main,_memcpy
    61                           	FNCALL	_main,___bmul
    62                           	FNCALL	_main,_IR_NEC_format
    63                           	FNCALL	_main,_IR_KDN_format
    64                           	FNCALL	_main,_lcd_init
    65                           	FNCALL	_main,_memset
    66                           	FNCALL	_main,_motion_control
    67                           	FNCALL	_main,_memcmp
    68                           	FNCALL	_main,_lcd_clear
    69                           	FNCALL	_main,_lcd_put_ir_format
    70                           	FNCALL	_main,_lcd_put_ir_data
    71                           	FNCALL	_lcd_put_ir_format,_lcd_goto_posi
    72                           	FNCALL	_lcd_put_ir_format,_lcd_put_char
    73                           	FNCALL	_lcd_clear,_toggle_E
    74                           	FNCALL	_lcd_init,_toggle_E
    75                           	FNCALL	_ir_recieve,_memset
    76                           	FNCALL	_ir_recieve,_Timer_Reset
    77                           	FNCALL	_ir_out_start,_IR_NEC_format
    78                           	FNCALL	_ir_out_start,_IR_KDN_format
    79                           	FNCALL	_lcd_put_ir_data,_lcd_goto_posi
    80                           	FNCALL	_lcd_put_ir_data,_lcd_put_hex
    81                           	FNCALL	_lcd_goto_posi,_toggle_E
    82                           	FNCALL	_IR_NEC_format,_IR_NEC_ReaderCode_Send
    83                           	FNCALL	_IR_NEC_format,_IR_NEC_DataCode_BitOn_Send
    84                           	FNCALL	_IR_NEC_format,_IR_NEC_DataCode_BitOff_Send
    85                           	FNCALL	_IR_NEC_format,_IR_NEC_DataCode_StopBit_Send
    86                           	FNCALL	_IR_KDN_format,_IR_KDN_ReaderCode_Send
    87                           	FNCALL	_IR_KDN_format,_IR_KDN_DataCode_BitOn_Send
    88                           	FNCALL	_IR_KDN_format,_IR_KDN_DataCode_BitOff_Send
    89                           	FNCALL	_IR_KDN_format,_IR_KDN_DataCode_StopBit_Send
    90                           	FNCALL	_lcd_put_hex,_lcd_put_char
    91                           	FNCALL	_lcd_put_char,_toggle_E
    92                           	FNROOT	_main
    93                           	global	lcd_put_ir_format@F848
    94                           	global	lcd_put_ir_format@F846
    95                           	global	lcd_put_ir_format@F844
    96                           psect	idataBANK0,class=CODE,space=0,delta=2
    97                           global __pidataBANK0
    98  0A7A                     __pidataBANK0:
    99                           	file	"C:\Users\denjo\Documents\PIC\infrated_ray\lcd.c"
   100                           	line	245
   101                           
   102                           ;initializer for lcd_put_ir_format@F848
   103  0A7A  344B               	retlw	04Bh
   104  0A7B  3441               	retlw	041h
   105  0A7C  3444               	retlw	044h
   106  0A7D  3445               	retlw	045h
   107  0A7E  344E               	retlw	04Eh
   108  0A7F  344B               	retlw	04Bh
   109  0A80  3459               	retlw	059h
   110  0A81  344F               	retlw	04Fh
   111                           	line	243
   112                           
   113                           ;initializer for lcd_put_ir_format@F846
   114  0A82  3455               	retlw	055h
   115  0A83  344E               	retlw	04Eh
   116  0A84  344B               	retlw	04Bh
   117  0A85  344E               	retlw	04Eh
   118  0A86  344F               	retlw	04Fh
   119  0A87  3457               	retlw	057h
   120  0A88  344E               	retlw	04Eh
   121                           psect	idataCOMMON,class=CODE,space=0,delta=2
   122                           global __pidataCOMMON
   123  0A1E                     __pidataCOMMON:
   124                           	line	242
   125                           
   126                           ;initializer for lcd_put_ir_format@F844
   127  0A1E  344E               	retlw	04Eh
   128  0A1F  3445               	retlw	045h
   129  0A20  3443               	retlw	043h
   130                           	global	_ir_format_tbl
   131                           psect	strings,class=CODE,delta=2,reloc=256
   132                           global __pstrings
   133  0A00                     __pstrings:
   134                           	global	stringdir,stringtab,__stringbase
   135  0A00                     stringtab:
   136                           ;	String table - string pointers are 2 bytes each
   137  0A00  00FE               	movwf	(btemp)&07Fh
   138  0A01  1FFE               	btfss	(btemp)&07Fh,7
   139  0A02  2A08               	goto	stringcode
   140  0A03  1383               	bcf	status,7
   141  0A04  187E               	btfsc	btemp&7Fh,0
   142  0A05  1783               	bsf	status,7
   143  0A06  0800               	movf	indf,w
   144  0A07  0008               	return
   145  0A08                     stringcode:
   146  0A08  008A               	movwf	pclath
   147  0A09  0804               	movf	fsr,w
   148  0A0A                     stringdir:
   149  0A0A  0082               	movwf pc
   150  0A0B                     __stringbase:
   151                           psect	stringtext1,class=CODE,delta=2
   152                           global __pstringtext1
   153  0003                     __pstringtext1:
   154                           	file	"C:\Users\denjo\Documents\PIC\infrated_ray\ir_data.h"
   155                           	line	28
   156  0003                     _ir_format_tbl:
   157  0003  3410               	retlw	010h
   158  0004  3410               	retlw	010h
   159  0005  3420               	retlw	020h
   160  0006  3420               	retlw	020h
   161                           	global	_ir_func1_code_tbl
   162                           psect	stringtext2,class=CODE,delta=2
   163                           global __pstringtext2
   164  0EA9                     __pstringtext2:
   165                           	file	"C:\Users\denjo\Documents\PIC\infrated_ray\ir_data.h"
   166                           	line	36
   167  0EA9                     _ir_func1_code_tbl:
   168  0EA9  3402               	retlw	02h
   169  0EAA  34FD               	retlw	0FDh
   170  0EAB  3448               	retlw	048h
   171  0EAC  34B7               	retlw	0B7h
   172  0EAD  3400               	retlw	0
   173  0EAE  3400               	retlw	0
   174  0EAF  3400               	retlw	0
   175  0EB0  3400               	retlw	0
   176  0EB1  3402               	retlw	02h
   177  0EB2  34FD               	retlw	0FDh
   178  0EB3  34F0               	retlw	0F0h
   179  0EB4  340F               	retlw	0Fh
   180  0EB5  3400               	retlw	0
   181  0EB6  3400               	retlw	0
   182  0EB7  3400               	retlw	0
   183  0EB8  3400               	retlw	0
   184  0EB9  3402               	retlw	02h
   185  0EBA  34FD               	retlw	0FDh
   186  0EBB  3458               	retlw	058h
   187  0EBC  34A7               	retlw	0A7h
   188  0EBD  3400               	retlw	0
   189  0EBE  3400               	retlw	0
   190  0EBF  3400               	retlw	0
   191  0EC0  3400               	retlw	0
   192  0EC1  3402               	retlw	02h
   193  0EC2  34FD               	retlw	0FDh
   194  0EC3  3478               	retlw	078h
   195  0EC4  3487               	retlw	087h
   196  0EC5  3400               	retlw	0
   197  0EC6  3400               	retlw	0
   198  0EC7  3400               	retlw	0
   199  0EC8  3400               	retlw	0
   200  0EC9  3402               	retlw	02h
   201  0ECA  34FD               	retlw	0FDh
   202  0ECB  34D8               	retlw	0D8h
   203  0ECC  3427               	retlw	027h
   204+ 0ECD  3400               	retlw	0
   205+ 0ECE  3400               	retlw	0
   206+ 0ECF  3400               	retlw	0
   207  0ED0  3400               	retlw	0
   208+ 0ED1  3402               	retlw	02h
   209+ 0ED2  34FD               	retlw	0FDh
   210+ 0ED3  34F8               	retlw	0F8h
   211+ 0ED4  3407               	retlw	07h
   212+ 0ED5  3400               	retlw	0
   213  0ED6  3400               	retlw	0
   214+ 0ED7  3400               	retlw	0
   215  0ED8  3400               	retlw	0
   216+ 0ED9  3402               	retlw	02h
   217+ 0EDA  34FD               	retlw	0FDh
   218+ 0EDB  3480               	retlw	080h
   219+ 0EDC  347F               	retlw	07Fh
   220+ 0EDD  3400               	retlw	0
   221  0EDE  3400               	retlw	0
   222  0EDF  3400               	retlw	0
   223+ 0EE0  3400               	retlw	0
   224+ 0EE1  3402               	retlw	02h
   225  0EE2  34FD               	retlw	0FDh
   226+ 0EE3  3440               	retlw	040h
   227  0EE4  34BF               	retlw	0BFh
   228+ 0EE5  3400               	retlw	0
   229  0EE6  3400               	retlw	0
   230+ 0EE7  3400               	retlw	0
   231+ 0EE8  3400               	retlw	0
   232+ 0EE9  3402               	retlw	02h
   233+ 0EEA  34FD               	retlw	0FDh
   234+ 0EEB  3420               	retlw	020h
   235  0EEC  34DF               	retlw	0DFh
   236+ 0EED  3400               	retlw	0
   237+ 0EEE  3400               	retlw	0
   238+ 0EEF  3400               	retlw	0
   239+ 0EF0  3400               	retlw	0
   240+ 0EF1  3402               	retlw	02h
   241  0EF2  34FD               	retlw	0FDh
   242+ 0EF3  34A0               	retlw	0A0h
   243  0EF4  345F               	retlw	05Fh
   244+ 0EF5  3400               	retlw	0
   245+ 0EF6  3400               	retlw	0
   246+ 0EF7  3400               	retlw	0
   247+ 0EF8  3400               	retlw	0
   248+ 0EF9  3402               	retlw	02h
   249  0EFA  34FD               	retlw	0FDh
   250+ 0EFB  3460               	retlw	060h
   251+ 0EFC  349F               	retlw	09Fh
   252+ 0EFD  3400               	retlw	0
   253+ 0EFE  3400               	retlw	0
   254+ 0EFF  3400               	retlw	0
   255  0F00  3400               	retlw	0
   256+ 0F01  3402               	retlw	02h
   257  0F02  34FD               	retlw	0FDh
   258+ 0F03  3410               	retlw	010h
   259+ 0F04  34EF               	retlw	0EFh
   260+ 0F05  3400               	retlw	0
   261+ 0F06  3400               	retlw	0
   262+ 0F07  3400               	retlw	0
   263  0F08  3400               	retlw	0
   264                           	global	_ir_func2_code_tbl
   265                           psect	stringtext3,class=CODE,delta=2
   266                           global __pstringtext3
   267  0E49                     __pstringtext3:
   268+                          	file	"C:\Users\denjo\Documents\PIC\infrated_ray\ir_data.h"
   269+                          	line	52
   270+ 0E49                     _ir_func2_code_tbl:
   271  0E49  340A               	retlw	0Ah
   272  0E4A  34F5               	retlw	0F5h
   273+ 0E4B  34E8               	retlw	0E8h
   274  0E4C  3417               	retlw	017h
   275+ 0E4D  3400               	retlw	0
   276  0E4E  3400               	retlw	0
   277+ 0E4F  3400               	retlw	0
   278+ 0E50  3400               	retlw	0
   279+ 0E51  340A               	retlw	0Ah
   280+ 0E52  34F5               	retlw	0F5h
   281+ 0E53  3490               	retlw	090h
   282  0E54  346F               	retlw	06Fh
   283+ 0E55  3400               	retlw	0
   284+ 0E56  3400               	retlw	0
   285+ 0E57  3400               	retlw	0
   286+ 0E58  3400               	retlw	0
   287+ 0E59  340A               	retlw	0Ah
   288  0E5A  34F5               	retlw	0F5h
   289+ 0E5B  3448               	retlw	048h
   290  0E5C  34B7               	retlw	0B7h
   291+ 0E5D  3400               	retlw	0
   292+ 0E5E  3400               	retlw	0
   293+ 0E5F  3400               	retlw	0
   294+ 0E60  3400               	retlw	0
   295+ 0E61  340A               	retlw	0Ah
   296  0E62  34F5               	retlw	0F5h
   297+ 0E63  34A8               	retlw	0A8h
   298+ 0E64  3457               	retlw	057h
   299+ 0E65  3400               	retlw	0
   300+ 0E66  3400               	retlw	0
   301+ 0E67  3400               	retlw	0
   302  0E68  3400               	retlw	0
   303+ 0E69  340A               	retlw	0Ah
   304  0E6A  34F5               	retlw	0F5h
   305+ 0E6B  3498               	retlw	098h
   306+ 0E6C  3467               	retlw	067h
   307+ 0E6D  3400               	retlw	0
   308+ 0E6E  3400               	retlw	0
   309  0E6F  3400               	retlw	0
   310  0E70  3400               	retlw	0
   311  0E71  340A               	retlw	0Ah
   312  0E72  34F5               	retlw	0F5h
   313  0E73  3418               	retlw	018h
   314  0E74  34A7               	retlw	0A7h
   315  0E75  3400               	retlw	0
   316  0E76  3400               	retlw	0
   317  0E77  3400               	retlw	0
   318  0E78  3400               	retlw	0
   319  0E79  340A               	retlw	0Ah
   320  0E7A  34F5               	retlw	0F5h
   321  0E7B  34B0               	retlw	0B0h
   322  0E7C  344F               	retlw	04Fh
   323  0E7D  3400               	retlw	0
   324  0E7E  3400               	retlw	0
   325  0E7F  3400               	retlw	0
   326  0E80  3400               	retlw	0
   327  0E81  340A               	retlw	0Ah
   328  0E82  34F5               	retlw	0F5h
   329  0E83  34F0               	retlw	0F0h
   330  0E84  340F               	retlw	0Fh
   331  0E85  3400               	retlw	0
   332  0E86  3400               	retlw	0
   333  0E87  3400               	retlw	0
   334  0E88  3400               	retlw	0
   335  0E89  340A               	retlw	0Ah
   336  0E8A  34F5               	retlw	0F5h
   337  0E8B  3438               	retlw	038h
   338  0E8C  34C7               	retlw	0C7h
   339  0E8D  3400               	retlw	0
   340  0E8E  3400               	retlw	0
   341  0E8F  3400               	retlw	0
   342  0E90  3400               	retlw	0
   343  0E91  340A               	retlw	0Ah
   344  0E92  34F5               	retlw	0F5h
   345  0E93  3478               	retlw	078h
   346  0E94  3487               	retlw	087h
   347  0E95  3400               	retlw	0
   348  0E96  3400               	retlw	0
   349  0E97  3400               	retlw	0
   350  0E98  3400               	retlw	0
   351  0E99  340A               	retlw	0Ah
   352  0E9A  34F5               	retlw	0F5h
   353  0E9B  3420               	retlw	020h
   354  0E9C  34DF               	retlw	0DFh
   355  0E9D  3400               	retlw	0
   356  0E9E  3400               	retlw	0
   357  0E9F  3400               	retlw	0
   358  0EA0  3400               	retlw	0
   359  0EA1  340A               	retlw	0Ah
   360  0EA2  34F5               	retlw	0F5h
   361  0EA3  3460               	retlw	060h
   362  0EA4  349F               	retlw	09Fh
   363  0EA5  3400               	retlw	0
   364  0EA6  3400               	retlw	0
   365  0EA7  3400               	retlw	0
   366  0EA8  3400               	retlw	0
   367                           	global	_ir_func3_code_tbl
   368                           psect	stringtext4,class=CODE,delta=2
   369                           global __pstringtext4
   370  0D29                     __pstringtext4:
   371                           	file	"C:\Users\denjo\Documents\PIC\infrated_ray\ir_data.h"
   372                           	line	68
   373  0D29                     _ir_func3_code_tbl:
   374  0D29  3455               	retlw	055h
   375  0D2A  345A               	retlw	05Ah
   376  0D2B  34F1               	retlw	0F1h
   377  0D2C  3448               	retlw	048h
   378  0D2D  3468               	retlw	068h
   379  0D2E  348B               	retlw	08Bh
   380  0D2F  3400               	retlw	0
   381  0D30  3400               	retlw	0
   382  0D31  3455               	retlw	055h
   383  0D32  345A               	retlw	05Ah
   384  0D33  34F1               	retlw	0F1h
   385  0D34  3448               	retlw	048h
   386  0D35  34C8               	retlw	0C8h
   387  0D36  3481               	retlw	081h
   388  0D37  3400               	retlw	0
   389  0D38  3400               	retlw	0
   390  0D39  3455               	retlw	055h
   391  0D3A  345A               	retlw	05Ah
   392  0D3B  34F1               	retlw	0F1h
   393  0D3C  3448               	retlw	048h
   394  0D3D  3428               	retlw	028h
   395  0D3E  348F               	retlw	08Fh
   396  0D3F  3400               	retlw	0
   397  0D40  3400               	retlw	0
   398  0D41  3455               	retlw	055h
   399  0D42  345A               	retlw	05Ah
   400  0D43  34F1               	retlw	0F1h
   401  0D44  3448               	retlw	048h
   402  0D45  34A8               	retlw	0A8h
   403  0D46  3487               	retlw	087h
   404  0D47  3400               	retlw	0
   405  0D48  3400               	retlw	0
   406  0D49  3455               	retlw	055h
   407  0D4A  345A               	retlw	05Ah
   408  0D4B  34F1               	retlw	0F1h
   409  0D4C  3448               	retlw	048h
   410  0D4D  3488               	retlw	088h
   411  0D4E  3485               	retlw	085h
   412  0D4F  3400               	retlw	0
   413  0D50  3400               	retlw	0
   414  0D51  3455               	retlw	055h
   415  0D52  345A               	retlw	05Ah
   416  0D53  34F1               	retlw	0F1h
   417  0D54  3448               	retlw	048h
   418  0D55  3448               	retlw	048h
   419  0D56  3489               	retlw	089h
   420  0D57  3400               	retlw	0
   421  0D58  3400               	retlw	0
   422  0D59  3455               	retlw	055h
   423  0D5A  345A               	retlw	05Ah
   424  0D5B  34F1               	retlw	0F1h
   425  0D5C  3448               	retlw	048h
   426  0D5D  3480               	retlw	080h
   427  0D5E  348D               	retlw	08Dh
   428  0D5F  3400               	retlw	0
   429  0D60  3400               	retlw	0
   430+ 0D61  3455               	retlw	055h
   431+ 0D62  345A               	retlw	05Ah
   432  0D63  34F1               	retlw	0F1h
   433  0D64  3448               	retlw	048h
   434  0D65  34C0               	retlw	0C0h
   435  0D66  3489               	retlw	089h
   436  0D67  3400               	retlw	0
   437  0D68  3400               	retlw	0
   438  0D69  3455               	retlw	055h
   439  0D6A  345A               	retlw	05Ah
   440  0D6B  34F1               	retlw	0F1h
   441  0D6C  3448               	retlw	048h
   442  0D6D  3420               	retlw	020h
   443  0D6E  3487               	retlw	087h
   444  0D6F  3400               	retlw	0
   445  0D70  3400               	retlw	0
   446  0D71  3455               	retlw	055h
   447  0D72  345A               	retlw	05Ah
   448  0D73  34F1               	retlw	0F1h
   449  0D74  3448               	retlw	048h
   450  0D75  3460               	retlw	060h
   451  0D76  3483               	retlw	083h
   452  0D77  3400               	retlw	0
   453  0D78  3400               	retlw	0
   454  0D79  3455               	retlw	055h
   455  0D7A  345A               	retlw	05Ah
   456  0D7B  34F1               	retlw	0F1h
   457  0D7C  3448               	retlw	048h
   458  0D7D  3410               	retlw	010h
   459  0D7E  3484               	retlw	084h
   460  0D7F  3400               	retlw	0
   461  0D80  3400               	retlw	0
   462  0D81  3455               	retlw	055h
   463  0D82  345A               	retlw	05Ah
   464  0D83  34F1               	retlw	0F1h
   465  0D84  3448               	retlw	048h
   466  0D85  3450               	retlw	050h
   467  0D86  3480               	retlw	080h
   468  0D87  3400               	retlw	0
   469  0D88  3400               	retlw	0
   470                           	global	_ir_func4_code_tbl
   471                           psect	stringtext5,class=CODE,delta=2
   472                           global __pstringtext5
   473  0D89                     __pstringtext5:
   474                           	file	"C:\Users\denjo\Documents\PIC\infrated_ray\ir_data.h"
   475                           	line	84
   476  0D89                     _ir_func4_code_tbl:
   477  0D89  3440               	retlw	040h
   478  0D8A  3404               	retlw	04h
   479  0D8B  3401               	retlw	01h
   480  0D8C  3400               	retlw	0
   481  0D8D  34BC               	retlw	0BCh
   482  0D8E  34BD               	retlw	0BDh
   483  0D8F  3400               	retlw	0
   484  0D90  3400               	retlw	0
   485  0D91  3440               	retlw	040h
   486  0D92  3404               	retlw	04h
   487  0D93  3401               	retlw	01h
   488  0D94  3400               	retlw	0
   489  0D95  34A0               	retlw	0A0h
   490  0D96  34A1               	retlw	0A1h
   491  0D97  3400               	retlw	0
   492  0D98  3400               	retlw	0
   493  0D99  3440               	retlw	040h
   494  0D9A  3404               	retlw	04h
   495  0D9B  3401               	retlw	01h
   496  0D9C  3400               	retlw	0
   497  0D9D  3404               	retlw	04h
   498  0D9E  3405               	retlw	05h
   499  0D9F  3400               	retlw	0
   500  0DA0  3400               	retlw	0
   501  0DA1  3440               	retlw	040h
   502  0DA2  3404               	retlw	04h
   503  0DA3  3401               	retlw	01h
   504  0DA4  3400               	retlw	0
   505  0DA5  3484               	retlw	084h
   506  0DA6  3485               	retlw	085h
   507  0DA7  3400               	retlw	0
   508  0DA8  3400               	retlw	0
   509  0DA9  3440               	retlw	040h
   510  0DAA  3404               	retlw	04h
   511  0DAB  3401               	retlw	01h
   512  0DAC  3400               	retlw	0
   513  0DAD  342C               	retlw	02Ch
   514  0DAE  342D               	retlw	02Dh
   515  0DAF  3400               	retlw	0
   516  0DB0  3400               	retlw	0
   517  0DB1  3440               	retlw	040h
   518  0DB2  3404               	retlw	04h
   519  0DB3  3401               	retlw	01h
   520  0DB4  3400               	retlw	0
   521  0DB5  34AC               	retlw	0ACh
   522  0DB6  34AD               	retlw	0ADh
   523  0DB7  3400               	retlw	0
   524  0DB8  3400               	retlw	0
   525  0DB9  3440               	retlw	040h
   526  0DBA  3404               	retlw	04h
   527  0DBB  3401               	retlw	01h
   528  0DBC  3400               	retlw	0
   529  0DBD  3408               	retlw	08h
   530  0DBE  3409               	retlw	09h
   531  0DBF  3400               	retlw	0
   532  0DC0  3400               	retlw	0
   533  0DC1  3440               	retlw	040h
   534  0DC2  3404               	retlw	04h
   535  0DC3  3401               	retlw	01h
   536  0DC4  3400               	retlw	0
   537  0DC5  3448               	retlw	048h
   538  0DC6  3449               	retlw	049h
   539  0DC7  3400               	retlw	0
   540  0DC8  3400               	retlw	0
   541  0DC9  3440               	retlw	040h
   542  0DCA  3404               	retlw	04h
   543  0DCB  3401               	retlw	01h
   544  0DCC  3400               	retlw	0
   545  0DCD  34C8               	retlw	0C8h
   546+ 0DCE  34C9               	retlw	0C9h
   547+ 0DCF  3400               	retlw	0
   548  0DD0  3400               	retlw	0
   549  0DD1  3440               	retlw	040h
   550  0DD2  3404               	retlw	04h
   551  0DD3  3401               	retlw	01h
   552  0DD4  3400               	retlw	0
   553  0DD5  34A8               	retlw	0A8h
   554  0DD6  34A9               	retlw	0A9h
   555  0DD7  3400               	retlw	0
   556  0DD8  3400               	retlw	0
   557  0DD9  3440               	retlw	040h
   558  0DDA  3404               	retlw	04h
   559  0DDB  3401               	retlw	01h
   560  0DDC  3400               	retlw	0
   561  0DDD  34E8               	retlw	0E8h
   562  0DDE  34E9               	retlw	0E9h
   563  0DDF  3400               	retlw	0
   564  0DE0  3400               	retlw	0
   565  0DE1  3440               	retlw	040h
   566  0DE2  3404               	retlw	04h
   567  0DE3  3401               	retlw	01h
   568  0DE4  3400               	retlw	0
   569  0DE5  3498               	retlw	098h
   570  0DE6  3499               	retlw	099h
   571  0DE7  3400               	retlw	0
   572  0DE8  3400               	retlw	0
   573                           	global	_ir_format_tbl
   574                           	global	_ir_func1_code_tbl
   575                           	global	_ir_func2_code_tbl
   576                           	global	_ir_func3_code_tbl
   577                           	global	_ir_func4_code_tbl
   578                           	global	_rx_format
   579                           	global	_pre_data
   580                           	global	_rcv_data
   581                           	global	_eep_wdata
   582                           	global	_eep_rdata
   583                           	global	_ADCON0
   584  001F                     _ADCON0  equ     31
   585                           	global	_ADRESH
   586  001E                     _ADRESH  equ     30
   587                           	global	_CCP1CON
   588  0017                     _CCP1CON  equ     23
   589                           	global	_CCP2CON
   590  001D                     _CCP2CON  equ     29
   591                           	global	_CCPR1H
   592  0016                     _CCPR1H  equ     22
   593                           	global	_CCPR1L
   594  0015                     _CCPR1L  equ     21
   595                           	global	_CCPR2H
   596  001C                     _CCPR2H  equ     28
   597                           	global	_CCPR2L
   598  001B                     _CCPR2L  equ     27
   599                           	global	_FSR
   600  0004                     _FSR  equ     4
   601                           	global	_INDF
   602  0000                     _INDF  equ     0
   603                           	global	_INTCON
   604  000B                     _INTCON  equ     11
   605                           	global	_PCL
   606  0002                     _PCL  equ     2
   607                           	global	_PCLATH
   608  000A                     _PCLATH  equ     10
   609                           	global	_PIR1
   610  000C                     _PIR1  equ     12
   611                           	global	_PIR2
   612  000D                     _PIR2  equ     13
   613                           	global	_PORTA
   614  0005                     _PORTA  equ     5
   615                           	global	_PORTB
   616  0006                     _PORTB  equ     6
   617                           	global	_PORTC
   618  0007                     _PORTC  equ     7
   619                           	global	_PORTE
   620  0009                     _PORTE  equ     9
   621                           	global	_RCREG
   622  001A                     _RCREG  equ     26
   623                           	global	_RCSTA
   624  0018                     _RCSTA  equ     24
   625                           	global	_SSPBUF
   626  0013                     _SSPBUF  equ     19
   627                           	global	_SSPCON
   628  0014                     _SSPCON  equ     20
   629                           	global	_STATUS
   630  0003                     _STATUS  equ     3
   631                           	global	_T1CON
   632  0010                     _T1CON  equ     16
   633                           	global	_T2CON
   634  0012                     _T2CON  equ     18
   635                           	global	_TMR0
   636  0001                     _TMR0  equ     1
   637                           	global	_TMR1H
   638  000F                     _TMR1H  equ     15
   639                           	global	_TMR1L
   640  000E                     _TMR1L  equ     14
   641                           	global	_TMR2
   642  0011                     _TMR2  equ     17
   643                           	global	_TXREG
   644  0019                     _TXREG  equ     25
   645                           	global	_ADCS0
   646  00FE                     _ADCS0  equ     254
   647                           	global	_ADCS1
   648  00FF                     _ADCS1  equ     255
   649                           	global	_ADDEN
   650  00C3                     _ADDEN  equ     195
   651                           	global	_ADIF
   652  0066                     _ADIF  equ     102
   653                           	global	_ADON
   654  00F8                     _ADON  equ     248
   655                           	global	_BCLIF
   656  006B                     _BCLIF  equ     107
   657                           	global	_C1IF
   658  006D                     _C1IF  equ     109
   659                           	global	_C2IF
   660  006E                     _C2IF  equ     110
   661                           	global	_CARRY
   662  0018                     _CARRY  equ     24
   663                           	global	_CCP1IF
   664  0062                     _CCP1IF  equ     98
   665                           	global	_CCP1M0
   666  00B8                     _CCP1M0  equ     184
   667                           	global	_CCP1M1
   668  00B9                     _CCP1M1  equ     185
   669                           	global	_CCP1M2
   670  00BA                     _CCP1M2  equ     186
   671                           	global	_CCP1M3
   672  00BB                     _CCP1M3  equ     187
   673                           	global	_CCP2IF
   674  0068                     _CCP2IF  equ     104
   675                           	global	_CCP2M0
   676  00E8                     _CCP2M0  equ     232
   677                           	global	_CCP2M1
   678  00E9                     _CCP2M1  equ     233
   679                           	global	_CCP2M2
   680  00EA                     _CCP2M2  equ     234
   681                           	global	_CCP2M3
   682  00EB                     _CCP2M3  equ     235
   683                           	global	_CCP2X
   684  00ED                     _CCP2X  equ     237
   685                           	global	_CCP2Y
   686  00EC                     _CCP2Y  equ     236
   687                           	global	_CHS0
   688  00FA                     _CHS0  equ     250
   689                           	global	_CHS1
   690  00FB                     _CHS1  equ     251
   691                           	global	_CHS2
   692  00FC                     _CHS2  equ     252
   693                           	global	_CHS3
   694  00FD                     _CHS3  equ     253
   695                           	global	_CKP
   696  00A4                     _CKP  equ     164
   697                           	global	_CREN
   698  00C4                     _CREN  equ     196
   699                           	global	_DC
   700  0019                     _DC  equ     25
   701                           	global	_DC1B0
   702  00BC                     _DC1B0  equ     188
   703                           	global	_DC1B1
   704  00BD                     _DC1B1  equ     189
   705                           	global	_EEIF
   706  006C                     _EEIF  equ     108
   707                           	global	_FERR
   708  00C2                     _FERR  equ     194
   709                           	global	_GIE
   710  005F                     _GIE  equ     95
   711                           	global	_GODONE
   712  00F9                     _GODONE  equ     249
   713                           	global	_INTE
   714  005C                     _INTE  equ     92
   715                           	global	_INTF
   716  0059                     _INTF  equ     89
   717                           	global	_IRP
   718  001F                     _IRP  equ     31
   719                           	global	_OERR
   720  00C1                     _OERR  equ     193
   721                           	global	_OSFIF
   722  006F                     _OSFIF  equ     111
   723                           	global	_P1M0
   724  00BE                     _P1M0  equ     190
   725                           	global	_P1M1
   726  00BF                     _P1M1  equ     191
   727                           	global	_PD
   728  001B                     _PD  equ     27
   729                           	global	_PEIE
   730  005E                     _PEIE  equ     94
   731                           	global	_RA0
   732  0028                     _RA0  equ     40
   733                           	global	_RA1
   734  0029                     _RA1  equ     41
   735                           	global	_RA2
   736  002A                     _RA2  equ     42
   737                           	global	_RA3
   738  002B                     _RA3  equ     43
   739                           	global	_RA4
   740  002C                     _RA4  equ     44
   741                           	global	_RA5
   742  002D                     _RA5  equ     45
   743                           	global	_RA6
   744  002E                     _RA6  equ     46
   745                           	global	_RA7
   746  002F                     _RA7  equ     47
   747                           	global	_RABIE
   748  005B                     _RABIE  equ     91
   749                           	global	_RABIF
   750  0058                     _RABIF  equ     88
   751                           	global	_RB0
   752  0030                     _RB0  equ     48
   753                           	global	_RB1
   754  0031                     _RB1  equ     49
   755                           	global	_RB2
   756  0032                     _RB2  equ     50
   757                           	global	_RB3
   758  0033                     _RB3  equ     51
   759                           	global	_RB4
   760  0034                     _RB4  equ     52
   761                           	global	_RB5
   762  0035                     _RB5  equ     53
   763                           	global	_RB6
   764  0036                     _RB6  equ     54
   765                           	global	_RB7
   766  0037                     _RB7  equ     55
   767                           	global	_RBIE
   768  005B                     _RBIE  equ     91
   769                           	global	_RBIF
   770  0058                     _RBIF  equ     88
   771                           	global	_RC0
   772  0038                     _RC0  equ     56
   773                           	global	_RC1
   774  0039                     _RC1  equ     57
   775                           	global	_RC2
   776  003A                     _RC2  equ     58
   777                           	global	_RC3
   778  003B                     _RC3  equ     59
   779                           	global	_RC4
   780  003C                     _RC4  equ     60
   781                           	global	_RC5
   782  003D                     _RC5  equ     61
   783                           	global	_RC6
   784  003E                     _RC6  equ     62
   785                           	global	_RC7
   786  003F                     _RC7  equ     63
   787                           	global	_RCIF
   788  0065                     _RCIF  equ     101
   789                           	global	_RE3
   790  004B                     _RE3  equ     75
   791                           	global	_RP0
   792  001D                     _RP0  equ     29
   793                           	global	_RP1
   794  001E                     _RP1  equ     30
   795                           	global	_RX9
   796  00C6                     _RX9  equ     198
   797                           	global	_RX9D
   798  00C0                     _RX9D  equ     192
   799                           	global	_SPEN
   800  00C7                     _SPEN  equ     199
   801                           	global	_SREN
   802  00C5                     _SREN  equ     197
   803                           	global	_SSPEN
   804  00A5                     _SSPEN  equ     165
   805                           	global	_SSPIF
   806  0063                     _SSPIF  equ     99
   807                           	global	_SSPM0
   808  00A0                     _SSPM0  equ     160
   809                           	global	_SSPM1
   810  00A1                     _SSPM1  equ     161
   811                           	global	_SSPM2
   812  00A2                     _SSPM2  equ     162
   813                           	global	_SSPM3
   814  00A3                     _SSPM3  equ     163
   815                           	global	_SSPOV
   816  00A6                     _SSPOV  equ     166
   817                           	global	_T0IE
   818  005D                     _T0IE  equ     93
   819                           	global	_T0IF
   820  005A                     _T0IF  equ     90
   821                           	global	_T1CKPS0
   822  0084                     _T1CKPS0  equ     132
   823                           	global	_T1CKPS1
   824  0085                     _T1CKPS1  equ     133
   825                           	global	_T1GINV
   826  0087                     _T1GINV  equ     135
   827                           	global	_T1OSCEN
   828  0083                     _T1OSCEN  equ     131
   829                           	global	_T1SYNC
   830  0082                     _T1SYNC  equ     130
   831                           	global	_T2CKPS0
   832  0090                     _T2CKPS0  equ     144
   833                           	global	_T2CKPS1
   834  0091                     _T2CKPS1  equ     145
   835                           	global	_TMR1CS
   836  0081                     _TMR1CS  equ     129
   837                           	global	_TMR1GE
   838  0086                     _TMR1GE  equ     134
   839                           	global	_TMR1IF
   840  0060                     _TMR1IF  equ     96
   841                           	global	_TMR1ON
   842  0080                     _TMR1ON  equ     128
   843                           	global	_TMR2IF
   844  0061                     _TMR2IF  equ     97
   845                           	global	_TMR2ON
   846  0092                     _TMR2ON  equ     146
   847                           	global	_TO
   848  001C                     _TO  equ     28
   849                           	global	_TOUTPS0
   850  0093                     _TOUTPS0  equ     147
   851                           	global	_TOUTPS1
   852  0094                     _TOUTPS1  equ     148
   853                           	global	_TOUTPS2
   854  0095                     _TOUTPS2  equ     149
   855                           	global	_TOUTPS3
   856  0096                     _TOUTPS3  equ     150
   857                           	global	_TXIF
   858  0064                     _TXIF  equ     100
   859                           	global	_ULPWUIF
   860  006A                     _ULPWUIF  equ     106
   861                           	global	_WCOL
   862  00A7                     _WCOL  equ     167
   863                           	global	_ZERO
   864  001A                     _ZERO  equ     26
   865                           	global	_ADCON1
   866  009F                     _ADCON1  equ     159
   867                           	global	_ADRESL
   868  009E                     _ADRESL  equ     158
   869                           	global	_ECCPAS
   870  009C                     _ECCPAS  equ     156
   871                           	global	_IOCB
   872  0096                     _IOCB  equ     150
   873                           	global	_OPTION
   874  0081                     _OPTION  equ     129
   875                           	global	_OSCCON
   876  008F                     _OSCCON  equ     143
   877                           	global	_OSCTUNE
   878  0090                     _OSCTUNE  equ     144
   879                           	global	_PCON
   880  008E                     _PCON  equ     142
   881                           	global	_PIE1
   882  008C                     _PIE1  equ     140
   883                           	global	_PIE2
   884  008D                     _PIE2  equ     141
   885                           	global	_PR2
   886  0092                     _PR2  equ     146
   887                           	global	_PSTRCON
   888  009D                     _PSTRCON  equ     157
   889                           	global	_PWM1CON
   890  009B                     _PWM1CON  equ     155
   891                           	global	_SPBRG
   892  0099                     _SPBRG  equ     153
   893                           	global	_SPBRGH
   894  009A                     _SPBRGH  equ     154
   895                           	global	_SSPADD
   896  0093                     _SSPADD  equ     147
   897                           	global	_SSPCON2
   898  0091                     _SSPCON2  equ     145
   899                           	global	_SSPMSK
   900  0093                     _SSPMSK  equ     147
   901                           	global	_SSPSTAT
   902  0094                     _SSPSTAT  equ     148
   903                           	global	_TRISA
   904  0085                     _TRISA  equ     133
   905                           	global	_TRISB
   906  0086                     _TRISB  equ     134
   907                           	global	_TRISC
   908  0087                     _TRISC  equ     135
   909                           	global	_TRISE
   910  0089                     _TRISE  equ     137
   911                           	global	_TXSTA
   912  0098                     _TXSTA  equ     152
   913                           	global	_VRCON
   914  0097                     _VRCON  equ     151
   915                           	global	_WPUB
   916  0095                     _WPUB  equ     149
   917                           	global	_ACKDT
   918  048D                     _ACKDT  equ     1165
   919                           	global	_ACKEN
   920  048C                     _ACKEN  equ     1164
   921                           	global	_ACKSTAT
   922  048E                     _ACKSTAT  equ     1166
   923                           	global	_ADFM
   924  04FF                     _ADFM  equ     1279
   925                           	global	_ADIE
   926  0466                     _ADIE  equ     1126
   927                           	global	_BCLIE
   928  046B                     _BCLIE  equ     1131
   929                           	global	_BF
   930  04A0                     _BF  equ     1184
   931                           	global	_BOR
   932  0470                     _BOR  equ     1136
   933                           	global	_BRG0
   934  04C8                     _BRG0  equ     1224
   935                           	global	_BRG1
   936  04C9                     _BRG1  equ     1225
   937                           	global	_BRG10
   938  04D2                     _BRG10  equ     1234
   939                           	global	_BRG11
   940  04D3                     _BRG11  equ     1235
   941                           	global	_BRG12
   942  04D4                     _BRG12  equ     1236
   943                           	global	_BRG13
   944  04D5                     _BRG13  equ     1237
   945                           	global	_BRG14
   946  04D6                     _BRG14  equ     1238
   947                           	global	_BRG15
   948  04D7                     _BRG15  equ     1239
   949                           	global	_BRG2
   950  04CA                     _BRG2  equ     1226
   951                           	global	_BRG3
   952  04CB                     _BRG3  equ     1227
   953                           	global	_BRG4
   954  04CC                     _BRG4  equ     1228
   955                           	global	_BRG5
   956  04CD                     _BRG5  equ     1229
   957                           	global	_BRG6
   958  04CE                     _BRG6  equ     1230
   959                           	global	_BRG7
   960  04CF                     _BRG7  equ     1231
   961                           	global	_BRG8
   962  04D0                     _BRG8  equ     1232
   963                           	global	_BRG9
   964  04D1                     _BRG9  equ     1233
   965                           	global	_BRGH
   966  04C2                     _BRGH  equ     1218
   967                           	global	_C1IE
   968  046D                     _C1IE  equ     1133
   969                           	global	_C2IE
   970  046E                     _C2IE  equ     1134
   971                           	global	_CCP1IE
   972  0462                     _CCP1IE  equ     1122
   973                           	global	_CCP2IE
   974  0468                     _CCP2IE  equ     1128
   975                           	global	_CKE
   976  04A6                     _CKE  equ     1190
   977                           	global	_CSRC
   978  04C7                     _CSRC  equ     1223
   979                           	global	_DA
   980  04A5                     _DA  equ     1189
   981                           	global	_ECCPAS0
   982  04E4                     _ECCPAS0  equ     1252
   983                           	global	_ECCPAS1
   984  04E5                     _ECCPAS1  equ     1253
   985                           	global	_ECCPAS2
   986  04E6                     _ECCPAS2  equ     1254
   987                           	global	_ECCPASE
   988  04E7                     _ECCPASE  equ     1255
   989                           	global	_EEIE
   990  046C                     _EEIE  equ     1132
   991                           	global	_GCEN
   992  048F                     _GCEN  equ     1167
   993                           	global	_HTS
   994  047A                     _HTS  equ     1146
   995                           	global	_INTEDG
   996  040E                     _INTEDG  equ     1038
   997                           	global	_IOCB0
   998  04B0                     _IOCB0  equ     1200
   999                           	global	_IOCB1
  1000  04B1                     _IOCB1  equ     1201
  1001                           	global	_IOCB2
  1002  04B2                     _IOCB2  equ     1202
  1003                           	global	_IOCB3
  1004  04B3                     _IOCB3  equ     1203
  1005                           	global	_IOCB4
  1006  04B4                     _IOCB4  equ     1204
  1007                           	global	_IOCB5
  1008  04B5                     _IOCB5  equ     1205
  1009                           	global	_IOCB6
  1010  04B6                     _IOCB6  equ     1206
  1011                           	global	_IOCB7
  1012  04B7                     _IOCB7  equ     1207
  1013                           	global	_IRCF0
  1014  047C                     _IRCF0  equ     1148
  1015                           	global	_IRCF1
  1016  047D                     _IRCF1  equ     1149
  1017                           	global	_IRCF2
  1018  047E                     _IRCF2  equ     1150
  1019                           	global	_LTS
  1020  0479                     _LTS  equ     1145
  1021                           	global	_OSFIE
  1022  046F                     _OSFIE  equ     1135
  1023                           	global	_OSTS
  1024  047B                     _OSTS  equ     1147
  1025                           	global	_PDC0
  1026  04D8                     _PDC0  equ     1240
  1027                           	global	_PDC1
  1028  04D9                     _PDC1  equ     1241
  1029                           	global	_PDC2
  1030  04DA                     _PDC2  equ     1242
  1031                           	global	_PDC3
  1032  04DB                     _PDC3  equ     1243
  1033                           	global	_PDC4
  1034  04DC                     _PDC4  equ     1244
  1035                           	global	_PDC5
  1036  04DD                     _PDC5  equ     1245
  1037                           	global	_PDC6
  1038  04DE                     _PDC6  equ     1246
  1039                           	global	_PEN
  1040  048A                     _PEN  equ     1162
  1041                           	global	_POR
  1042  0471                     _POR  equ     1137
  1043                           	global	_PRSEN
  1044  04DF                     _PRSEN  equ     1247
  1045                           	global	_PS0
  1046  0408                     _PS0  equ     1032
  1047                           	global	_PS1
  1048  0409                     _PS1  equ     1033
  1049                           	global	_PS2
  1050  040A                     _PS2  equ     1034
  1051                           	global	_PSA
  1052  040B                     _PSA  equ     1035
  1053                           	global	_PSSAC0
  1054  04E2                     _PSSAC0  equ     1250
  1055                           	global	_PSSAC1
  1056  04E3                     _PSSAC1  equ     1251
  1057                           	global	_PSSBD0
  1058  04E0                     _PSSBD0  equ     1248
  1059                           	global	_PSSBD1
  1060  04E1                     _PSSBD1  equ     1249
  1061                           	global	_RABPU
  1062  040F                     _RABPU  equ     1039
  1063                           	global	_RBPU
  1064  040F                     _RBPU  equ     1039
  1065                           	global	_RCEN
  1066  048B                     _RCEN  equ     1163
  1067                           	global	_RCIE
  1068  0465                     _RCIE  equ     1125
  1069                           	global	_RSEN
  1070  0489                     _RSEN  equ     1161
  1071                           	global	_RW
  1072  04A2                     _RW  equ     1186
  1073                           	global	_SBOREN
  1074  0474                     _SBOREN  equ     1140
  1075                           	global	_SCS
  1076  0478                     _SCS  equ     1144
  1077                           	global	_SEN
  1078  0488                     _SEN  equ     1160
  1079                           	global	_SENDB
  1080  04C3                     _SENDB  equ     1219
  1081                           	global	_SMP
  1082  04A7                     _SMP  equ     1191
  1083                           	global	_SSPIE
  1084  0463                     _SSPIE  equ     1123
  1085                           	global	_START
  1086  04A3                     _START  equ     1187
  1087                           	global	_STOP
  1088  04A4                     _STOP  equ     1188
  1089                           	global	_STRA
  1090  04E8                     _STRA  equ     1256
  1091                           	global	_STRB
  1092  04E9                     _STRB  equ     1257
  1093                           	global	_STRC
  1094  04EA                     _STRC  equ     1258
  1095                           	global	_STRD
  1096  04EB                     _STRD  equ     1259
  1097                           	global	_STRSYNC
  1098  04EC                     _STRSYNC  equ     1260
  1099                           	global	_SYNC
  1100  04C4                     _SYNC  equ     1220
  1101                           	global	_T0CS
  1102  040D                     _T0CS  equ     1037
  1103                           	global	_T0SE
  1104  040C                     _T0SE  equ     1036
  1105                           	global	_TMR1IE
  1106  0460                     _TMR1IE  equ     1120
  1107                           	global	_TMR2IE
  1108  0461                     _TMR2IE  equ     1121
  1109                           	global	_TRISA0
  1110  0428                     _TRISA0  equ     1064
  1111                           	global	_TRISA1
  1112  0429                     _TRISA1  equ     1065
  1113                           	global	_TRISA2
  1114  042A                     _TRISA2  equ     1066
  1115                           	global	_TRISA3
  1116  042B                     _TRISA3  equ     1067
  1117                           	global	_TRISA4
  1118  042C                     _TRISA4  equ     1068
  1119                           	global	_TRISA5
  1120  042D                     _TRISA5  equ     1069
  1121                           	global	_TRISA6
  1122  042E                     _TRISA6  equ     1070
  1123                           	global	_TRISA7
  1124  042F                     _TRISA7  equ     1071
  1125                           	global	_TRISB0
  1126  0430                     _TRISB0  equ     1072
  1127                           	global	_TRISB1
  1128  0431                     _TRISB1  equ     1073
  1129                           	global	_TRISB2
  1130  0432                     _TRISB2  equ     1074
  1131                           	global	_TRISB3
  1132  0433                     _TRISB3  equ     1075
  1133                           	global	_TRISB4
  1134  0434                     _TRISB4  equ     1076
  1135                           	global	_TRISB5
  1136  0435                     _TRISB5  equ     1077
  1137                           	global	_TRISB6
  1138  0436                     _TRISB6  equ     1078
  1139                           	global	_TRISB7
  1140  0437                     _TRISB7  equ     1079
  1141                           	global	_TRISC0
  1142  0438                     _TRISC0  equ     1080
  1143                           	global	_TRISC1
  1144  0439                     _TRISC1  equ     1081
  1145                           	global	_TRISC2
  1146  043A                     _TRISC2  equ     1082
  1147                           	global	_TRISC3
  1148  043B                     _TRISC3  equ     1083
  1149                           	global	_TRISC4
  1150  043C                     _TRISC4  equ     1084
  1151                           	global	_TRISC5
  1152  043D                     _TRISC5  equ     1085
  1153                           	global	_TRISC6
  1154  043E                     _TRISC6  equ     1086
  1155                           	global	_TRISC7
  1156  043F                     _TRISC7  equ     1087
  1157                           	global	_TRISE3
  1158  044B                     _TRISE3  equ     1099
  1159                           	global	_TRMT
  1160  04C1                     _TRMT  equ     1217
  1161                           	global	_TUN0
  1162  0480                     _TUN0  equ     1152
  1163                           	global	_TUN1
  1164  0481                     _TUN1  equ     1153
  1165                           	global	_TUN2
  1166  0482                     _TUN2  equ     1154
  1167                           	global	_TUN3
  1168  0483                     _TUN3  equ     1155
  1169                           	global	_TUN4
  1170  0484                     _TUN4  equ     1156
  1171                           	global	_TX9
  1172  04C6                     _TX9  equ     1222
  1173                           	global	_TX9D
  1174  04C0                     _TX9D  equ     1216
  1175                           	global	_TXEN
  1176  04C5                     _TXEN  equ     1221
  1177                           	global	_TXIE
  1178  0464                     _TXIE  equ     1124
  1179                           	global	_UA
  1180  04A1                     _UA  equ     1185
  1181                           	global	_ULPWUE
  1182  0475                     _ULPWUE  equ     1141
  1183                           	global	_ULPWUIE
  1184  046A                     _ULPWUIE  equ     1130
  1185                           	global	_VCFG0
  1186  04FC                     _VCFG0  equ     1276
  1187                           	global	_VCFG1
  1188  04FD                     _VCFG1  equ     1277
  1189                           	global	_VR0
  1190  04B8                     _VR0  equ     1208
  1191                           	global	_VR1
  1192  04B9                     _VR1  equ     1209
  1193                           	global	_VR2
  1194  04BA                     _VR2  equ     1210
  1195                           	global	_VR3
  1196  04BB                     _VR3  equ     1211
  1197                           	global	_VREN
  1198  04BF                     _VREN  equ     1215
  1199                           	global	_VROE
  1200  04BE                     _VROE  equ     1214
  1201                           	global	_VRR
  1202  04BD                     _VRR  equ     1213
  1203                           	global	_VRSS
  1204  04BC                     _VRSS  equ     1212
  1205                           	global	_WPUB0
  1206  04A8                     _WPUB0  equ     1192
  1207                           	global	_WPUB1
  1208  04A9                     _WPUB1  equ     1193
  1209                           	global	_WPUB2
  1210  04AA                     _WPUB2  equ     1194
  1211                           	global	_WPUB3
  1212  04AB                     _WPUB3  equ     1195
  1213                           	global	_WPUB4
  1214  04AC                     _WPUB4  equ     1196
  1215                           	global	_WPUB5
  1216  04AD                     _WPUB5  equ     1197
  1217                           	global	_WPUB6
  1218  04AE                     _WPUB6  equ     1198
  1219                           	global	_WPUB7
  1220  04AF                     _WPUB7  equ     1199
  1221                           	global	_CM1CON0
  1222  0107                     _CM1CON0  equ     263
  1223                           	global	_CM2CON0
  1224  0108                     _CM2CON0  equ     264
  1225                           	global	_CM2CON1
  1226  0109                     _CM2CON1  equ     265
  1227                           	global	_EEADR
  1228  010D                     _EEADR  equ     269
  1229                           	global	_EEADRH
  1230  010F                     _EEADRH  equ     271
  1231                           	global	_EEADRL
  1232  010D                     _EEADRL  equ     269
  1233                           	global	_EEDAT
  1234  010C                     _EEDAT  equ     268
  1235                           	global	_EEDATA
  1236  010C                     _EEDATA  equ     268
  1237                           	global	_EEDATH
  1238  010E                     _EEDATH  equ     270
  1239                           	global	_WDTCON
  1240  0105                     _WDTCON  equ     261
  1241                           	global	_C1CH0
  1242  0838                     _C1CH0  equ     2104
  1243                           	global	_C1CH1
  1244  0839                     _C1CH1  equ     2105
  1245                           	global	_C1OE
  1246  083D                     _C1OE  equ     2109
  1247                           	global	_C1ON
  1248  083F                     _C1ON  equ     2111
  1249                           	global	_C1OUT
  1250  083E                     _C1OUT  equ     2110
  1251                           	global	_C1POL
  1252  083C                     _C1POL  equ     2108
  1253                           	global	_C1R
  1254  083A                     _C1R  equ     2106
  1255                           	global	_C1RSEL
  1256  084D                     _C1RSEL  equ     2125
  1257                           	global	_C2CH0
  1258  0840                     _C2CH0  equ     2112
  1259                           	global	_C2CH1
  1260  0841                     _C2CH1  equ     2113
  1261                           	global	_C2OE
  1262  0845                     _C2OE  equ     2117
  1263                           	global	_C2ON
  1264  0847                     _C2ON  equ     2119
  1265                           	global	_C2OUT
  1266  0846                     _C2OUT  equ     2118
  1267                           	global	_C2POL
  1268  0844                     _C2POL  equ     2116
  1269                           	global	_C2R
  1270  0842                     _C2R  equ     2114
  1271                           	global	_C2RSEL
  1272  084C                     _C2RSEL  equ     2124
  1273                           	global	_C2SYNC
  1274  0848                     _C2SYNC  equ     2120
  1275                           	global	_MC1OUT
  1276  084F                     _MC1OUT  equ     2127
  1277                           	global	_MC2OUT
  1278  084E                     _MC2OUT  equ     2126
  1279                           	global	_SWDTEN
  1280  0828                     _SWDTEN  equ     2088
  1281                           	global	_T1GSS
  1282  0849                     _T1GSS  equ     2121
  1283                           	global	_WDTPS0
  1284  0829                     _WDTPS0  equ     2089
  1285                           	global	_WDTPS1
  1286  082A                     _WDTPS1  equ     2090
  1287                           	global	_WDTPS2
  1288  082B                     _WDTPS2  equ     2091
  1289                           	global	_WDTPS3
  1290  082C                     _WDTPS3  equ     2092
  1291                           	global	_ANSEL
  1292  0188                     _ANSEL  equ     392
  1293                           	global	_ANSELH
  1294  0189                     _ANSELH  equ     393
  1295                           	global	_BAUDCTL
  1296  0187                     _BAUDCTL  equ     391
  1297                           	global	_EECON1
  1298  018C                     _EECON1  equ     396
  1299                           	global	_EECON2
  1300  018D                     _EECON2  equ     397
  1301                           	global	_SRCON
  1302  0185                     _SRCON  equ     389
  1303                           	global	_ABDEN
  1304  0C38                     _ABDEN  equ     3128
  1305                           	global	_ABDOVF
  1306  0C3F                     _ABDOVF  equ     3135
  1307                           	global	_ANS0
  1308  0C40                     _ANS0  equ     3136
  1309                           	global	_ANS1
  1310  0C41                     _ANS1  equ     3137
  1311                           	global	_ANS10
  1312  0C4A                     _ANS10  equ     3146
  1313                           	global	_ANS11
  1314  0C4B                     _ANS11  equ     3147
  1315                           	global	_ANS12
  1316  0C4C                     _ANS12  equ     3148
  1317                           	global	_ANS13
  1318  0C4D                     _ANS13  equ     3149
  1319                           	global	_ANS2
  1320  0C42                     _ANS2  equ     3138
  1321                           	global	_ANS3
  1322  0C43                     _ANS3  equ     3139
  1323                           	global	_ANS4
  1324  0C44                     _ANS4  equ     3140
  1325                           	global	_ANS8
  1326  0C48                     _ANS8  equ     3144
  1327                           	global	_ANS9
  1328  0C49                     _ANS9  equ     3145
  1329                           	global	_BRG16
  1330  0C3B                     _BRG16  equ     3131
  1331                           	global	_C1SEN
  1332  0C2D                     _C1SEN  equ     3117
  1333                           	global	_C2REN
  1334  0C2C                     _C2REN  equ     3116
  1335                           	global	_EEPGD
  1336  0C67                     _EEPGD  equ     3175
  1337                           	global	_FVREN
  1338  0C28                     _FVREN  equ     3112
  1339                           	global	_PULSR
  1340  0C2A                     _PULSR  equ     3114
  1341                           	global	_PULSS
  1342  0C2B                     _PULSS  equ     3115
  1343                           	global	_RCIDL
  1344  0C3E                     _RCIDL  equ     3134
  1345                           	global	_RD
  1346  0C60                     _RD  equ     3168
  1347                           	global	_SCKP
  1348  0C3C                     _SCKP  equ     3132
  1349                           	global	_SR0
  1350  0C2E                     _SR0  equ     3118
  1351                           	global	_SR1
  1352  0C2F                     _SR1  equ     3119
  1353                           	global	_WR
  1354  0C61                     _WR  equ     3169
  1355                           	global	_WREN
  1356  0C62                     _WREN  equ     3170
  1357                           	global	_WRERR
  1358  0C63                     _WRERR  equ     3171
  1359                           	global	_WUE
  1360  0C39                     _WUE  equ     3129
  1361                           	file	"infrated_ray_project.as"
  1362                           	line	#
  1363                           psect cinit,class=CODE,delta=2
  1364                           global start_initialization
  1365  0C0B                     start_initialization:
  1366                           
  1367                           psect	bssCOMMON,class=COMMON,space=1
  1368                           global __pbssCOMMON
  1369  0079                     __pbssCOMMON:
  1370  0079                     _rx_format:
  1371  0079                            ds      1
  1372                           
  1373                           psect	dataCOMMON,class=COMMON,space=1
  1374                           global __pdataCOMMON
  1375  0076                     __pdataCOMMON:
  1376                           	file	"C:\Users\denjo\Documents\PIC\infrated_ray\lcd.c"
  1377                           	line	242
  1378  0076                     lcd_put_ir_format@F844:
  1379  0076                            ds      3
  1380                           
  1381                           psect	bssBANK0,class=BANK0,space=1
  1382                           global __pbssBANK0
  1383  0040                     __pbssBANK0:
  1384  0040                     _pre_data:
  1385  0040                            ds      8
  1386                           
  1387  0048                     _rcv_data:
  1388  0048                            ds      8
  1389                           
  1390  0050                     _eep_wdata:
  1391  0050                            ds      7
  1392                           
  1393                           psect	dataBANK0,class=BANK0,space=1
  1394                           global __pdataBANK0
  1395  0057                     __pdataBANK0:
  1396                           	file	"C:\Users\denjo\Documents\PIC\infrated_ray\lcd.c"
  1397                           	line	245
  1398  0057                     lcd_put_ir_format@F848:
  1399  0057                            ds      8
  1400                           
  1401                           psect	dataBANK0
  1402                           	file	"C:\Users\denjo\Documents\PIC\infrated_ray\lcd.c"
  1403                           	line	243
  1404  005F                     lcd_put_ir_format@F846:
  1405  005F                            ds      7
  1406                           
  1407                           psect	bssBANK1,class=BANK1,space=1
  1408                           global __pbssBANK1
  1409  00A0                     __pbssBANK1:
  1410  00A0                     _eep_rdata:
  1411  00A0                            ds      28
  1412                           
  1413                           psect clrtext,class=CODE,delta=2
  1414                           global clear_ram
  1415                           ;	Called with FSR containing the base address, and
  1416                           ;	W with the last address+1
  1417  0A0B                     clear_ram:
  1418  0A0B  0064               	clrwdt			;clear the watchdog before getting into this loop
  1419  0A0C                     clrloop:
  1420  0A0C  0180               	clrf	indf		;clear RAM location pointed to by FSR
  1421  0A0D  0A84               	incf	fsr,f		;increment pointer
  1422  0A0E  0604               	xorwf	fsr,w		;XOR with final address
  1423  0A0F  1903               	btfsc	status,2	;have we reached the end yet?
  1424  0A10  3400               	retlw	0		;all done for this memory range, return
  1425  0A11  0604               	xorwf	fsr,w		;XOR again to restore value
  1426  0A12  2A0C               	goto	clrloop		;do the next byte
  1427                           
  1428                           ; Clear objects allocated to COMMON
  1429                           psect cinit,class=CODE,delta=2
  1430  0C0B  01F9               	clrf	((__pbssCOMMON)+0)&07Fh
  1431                           ; Clear objects allocated to BANK0
  1432                           psect cinit,class=CODE,delta=2
  1433  0C0C  1383               	bcf	status, 7	;select IRP bank0
  1434  0C0D  3040               	movlw	low(__pbssBANK0)
  1435  0C0E  0084               	movwf	fsr
  1436  0C0F  3057               	movlw	low((__pbssBANK0)+017h)
  1437  0C10  120A  158A  220B   	fcall	clear_ram
              120A  158A         
  1438                           ; Clear objects allocated to BANK1
  1439                           psect cinit,class=CODE,delta=2
  1440  0C15  30A0               	movlw	low(__pbssBANK1)
  1441  0C16  0084               	movwf	fsr
  1442  0C17  30BC               	movlw	low((__pbssBANK1)+01Ch)
  1443  0C18  120A  158A  220B   	fcall	clear_ram
              120A  158A         
  1444                           global btemp
  1445                           psect inittext,class=CODE,delta=2
  1446                           global init_fetch,btemp
  1447                           ;	Called with low address in FSR and high address in W
  1448  0A9A                     init_fetch:
  1449  0A9A  087E               	movf btemp,w
  1450  0A9B  008A               	movwf pclath
  1451  0A9C  087F               	movf btemp+1,w
  1452  0A9D  0082               	movwf pc
  1453                           global init_ram
  1454                           ;Called with:
  1455                           ;	high address of idata address in btemp 
  1456                           ;	low address of idata address in btemp+1 
  1457                           ;	low address of data in FSR
  1458                           ;	high address + 1 of data in btemp-1
  1459  0A9E                     init_ram:
  1460  0A9E  229A  120A  158A   	fcall init_fetch
  1461  0AA1  0080               	movwf indf,f
  1462  0AA2  0A84               	incf fsr,f
  1463  0AA3  0804               	movf fsr,w
  1464  0AA4  067D               	xorwf btemp-1,w
  1465  0AA5  1903               	btfsc status,2
  1466  0AA6  3400               	retlw 0
  1467  0AA7  0AFF               	incf btemp+1,f
  1468  0AA8  1903               	btfsc status,2
  1469  0AA9  0AFE               	incf btemp,f
  1470  0AAA  2A9E               	goto init_ram
  1471                           ; Initialize objects allocated to COMMON
  1472                           psect cinit,class=CODE,delta=2
  1473                           global init_ram, __pidataCOMMON
  1474  0C1D  3079               	movlw low(__pdataCOMMON+3)
  1475  0C1E  00FD               	movwf btemp-1,f
  1476  0C1F  300A               	movlw high(__pidataCOMMON)
  1477  0C20  00FE               	movwf btemp,f
  1478  0C21  301E               	movlw low(__pidataCOMMON)
  1479  0C22  00FF               	movwf btemp+1,f
  1480  0C23  3076               	movlw low(__pdataCOMMON)
  1481  0C24  0084               	movwf fsr,f
  1482  0C25  120A  158A  229E   	fcall init_ram
              120A  158A         
  1483                           ; Initialize objects allocated to BANK0
  1484                           psect cinit,class=CODE,delta=2
  1485                           global init_ram, __pidataBANK0
  1486  0C2A  3066               	movlw low(__pdataBANK0+15)
  1487  0C2B  00FD               	movwf btemp-1,f
  1488  0C2C  300A               	movlw high(__pidataBANK0)
  1489  0C2D  00FE               	movwf btemp,f
  1490  0C2E  307A               	movlw low(__pidataBANK0)
  1491  0C2F  00FF               	movwf btemp+1,f
  1492  0C30  3057               	movlw low(__pdataBANK0)
  1493  0C31  0084               	movwf fsr,f
  1494  0C32  120A  158A  229E   	fcall init_ram
              120A  158A         
  1495                           psect cinit,class=CODE,delta=2
  1496                           global end_of_initialization
  1497                           
  1498                           ;End of C runtime variable initationation code
  1499                           
  1500  0C37                     end_of_initialization:
  1501  0C37  0183               clrf status
  1502  0C38  120A  118A  2C91   ljmp _main	;jump to C main() function
  1503                           psect	cstackBANK1,class=BANK1,space=1
  1504                           global __pcstackBANK1
  1505  00BC                     __pcstackBANK1:
  1506                           	global	main@func_key_type
  1507  00BC                     main@func_key_type:	; 1 bytes @ 0x0
  1508  00BC                     	ds	1
  1509                           	global	main@ir_state
  1510  00BD                     main@ir_state:	; 1 bytes @ 0x1
  1511  00BD                     	ds	1
  1512                           	global	main@eep_offset
  1513  00BE                     main@eep_offset:	; 1 bytes @ 0x2
  1514  00BE                     	ds	1
  1515                           	global	main@i
  1516  00BF                     main@i:	; 1 bytes @ 0x3
  1517  00BF                     	ds	1
  1518                           	global	main@key_code
  1519  00C0                     main@key_code:	; 1 bytes @ 0x4
  1520  00C0                     	ds	1
  1521                           psect	cstackCOMMON,class=COMMON,space=1
  1522                           global __pcstackCOMMON
  1523  0070                     __pcstackCOMMON:
  1524                           	global	??_memset
  1525  0070                     ??_memset: ;@ 0x0
  1526                           	global	??_key_input_check
  1527  0070                     ??_key_input_check: ;@ 0x0
  1528                           	global	?_Timer_Reset
  1529  0070                     ?_Timer_Reset: ;@ 0x0
  1530                           	global	??_lcd_goto_posi
  1531  0070                     ??_lcd_goto_posi: ;@ 0x0
  1532                           	global	??_Timer_Reset
  1533  0070                     ??_Timer_Reset: ;@ 0x0
  1534                           	global	??___bmul
  1535  0070                     ??___bmul: ;@ 0x0
  1536                           	global	??_memcpy
  1537  0070                     ??_memcpy: ;@ 0x0
  1538                           	global	??_lcd_init
  1539  0070                     ??_lcd_init: ;@ 0x0
  1540                           	global	??_led_control
  1541  0070                     ??_led_control: ;@ 0x0
  1542                           	global	??_cpu_sleep
  1543  0070                     ??_cpu_sleep: ;@ 0x0
  1544                           	global	??_lcd_put_char
  1545  0070                     ??_lcd_put_char: ;@ 0x0
  1546                           	global	??_IR_KDN_DataCode_BitOff_Send
  1547  0070                     ??_IR_KDN_DataCode_BitOff_Send: ;@ 0x0
  1548                           	global	??_IR_KDN_DataCode_StopBit_Send
  1549  0070                     ??_IR_KDN_DataCode_StopBit_Send: ;@ 0x0
  1550                           	global	??_IR_KDN_DataCode_BitOn_Send
  1551  0070                     ??_IR_KDN_DataCode_BitOn_Send: ;@ 0x0
  1552                           	global	??_toggle_E
  1553  0070                     ??_toggle_E: ;@ 0x0
  1554                           	global	??__delay
  1555  0070                     ??__delay: ;@ 0x0
  1556                           	global	??_IR_NEC_DataCode_StopBit_Send
  1557  0070                     ??_IR_NEC_DataCode_StopBit_Send: ;@ 0x0
  1558                           	global	??_IR_NEC_DataCode_BitOff_Send
  1559  0070                     ??_IR_NEC_DataCode_BitOff_Send: ;@ 0x0
  1560                           	global	??_IR_NEC_ReaderCode_Send
  1561  0070                     ??_IR_NEC_ReaderCode_Send: ;@ 0x0
  1562                           	global	??_IR_KDN_ReaderCode_Send
  1563  0070                     ??_IR_KDN_ReaderCode_Send: ;@ 0x0
  1564                           	global	??_IR_NEC_DataCode_BitOn_Send
  1565  0070                     ??_IR_NEC_DataCode_BitOn_Send: ;@ 0x0
  1566                           	global	??_motion_control
  1567  0070                     ??_motion_control: ;@ 0x0
  1568                           	global	??_lcd_clear
  1569  0070                     ??_lcd_clear: ;@ 0x0
  1570                           	global	??_memcmp
  1571  0070                     ??_memcmp: ;@ 0x0
  1572                           	global	motion_control@motion_state
  1573  0070                     motion_control@motion_state:	; 1 bytes @ 0x0
  1574  0070                     	ds	1
  1575                           	global	?_motion_control
  1576  0071                     ?_motion_control: ;@ 0x1
  1577                           	global	?_cpu_sleep
  1578  0071                     ?_cpu_sleep: ;@ 0x1
  1579                           	global	??_ir_recieve
  1580  0071                     ??_ir_recieve: ;@ 0x1
  1581                           	global	??_lcd_put_hex
  1582  0071                     ??_lcd_put_hex: ;@ 0x1
  1583                           	global	lcd_goto_posi@addr
  1584  0071                     lcd_goto_posi@addr:	; 1 bytes @ 0x1
  1585                           	global	___bmul@product
  1586  0071                     ___bmul@product:	; 1 bytes @ 0x1
  1587                           	global	led_control@led_state
  1588  0071                     led_control@led_state:	; 1 bytes @ 0x1
  1589                           	global	key_input_check@i
  1590  0071                     key_input_check@i:	; 1 bytes @ 0x1
  1591                           	global	memcpy@d1
  1592  0071                     memcpy@d1:	; 1 bytes @ 0x1
  1593  0071                     	ds	1
  1594                           	global	?_lcd_clear
  1595  0072                     ?_lcd_clear: ;@ 0x2
  1596                           	global	?_led_control
  1597  0072                     ?_led_control: ;@ 0x2
  1598                           	global	?_lcd_put_hex
  1599  0072                     ?_lcd_put_hex: ;@ 0x2
  1600                           	global	?_lcd_init
  1601  0072                     ?_lcd_init: ;@ 0x2
  1602                           	global	??_IR_NEC_format
  1603  0072                     ??_IR_NEC_format: ;@ 0x2
  1604                           	global	IR_KDN_format@j
  1605  0072                     IR_KDN_format@j:	; 1 bytes @ 0x2
  1606                           	global	memcmp@s1
  1607  0072                     memcmp@s1:	; 1 bytes @ 0x2
  1608                           	global	lcd_goto_posi@temp
  1609  0072                     lcd_goto_posi@temp:	; 1 bytes @ 0x2
  1610                           	global	key_input_check@code
  1611  0072                     key_input_check@code:	; 1 bytes @ 0x2
  1612                           	global	memcpy@s
  1613  0072                     memcpy@s:	; 1 bytes @ 0x2
  1614                           	global	___bmul@multiplier
  1615  0072                     ___bmul@multiplier:	; 1 bytes @ 0x2
  1616  0072                     	ds	1
  1617                           	global	??_lcd_put_ir_data
  1618  0073                     ??_lcd_put_ir_data: ;@ 0x3
  1619                           	global	?_key_input_check
  1620  0073                     ?_key_input_check: ;@ 0x3
  1621                           	global	?_ir_recieve
  1622  0073                     ?_ir_recieve: ;@ 0x3
  1623                           	global	?___bmul
  1624  0073                     ?___bmul: ;@ 0x3
  1625                           	global	___bmul@multiplicand
  1626  0073                     ___bmul@multiplicand:	; 1 bytes @ 0x3
  1627                           	global	IR_KDN_format@i
  1628  0073                     IR_KDN_format@i:	; 1 bytes @ 0x3
  1629                           	global	memcpy@d
  1630  0073                     memcpy@d:	; 1 bytes @ 0x3
  1631  0073                     	ds	3
  1632                           psect	cstackBANK0,class=BANK0,space=1
  1633                           global __pcstackBANK0
  1634  0020                     __pcstackBANK0:
  1635                           	global	?__delay
  1636  0020                     ?__delay: ;@ 0x0
  1637                           	global	?_toggle_E
  1638  0020                     ?_toggle_E: ;@ 0x0
  1639                           	global	?_memcpy
  1640  0020                     ?_memcpy: ;@ 0x0
  1641                           	global	memcpy@s1
  1642  0020                     memcpy@s1:	; 1 bytes @ 0x0
  1643                           	global	memset@p1
  1644  0020                     memset@p1:	; 1 bytes @ 0x0
  1645                           	global	memcmp@s2
  1646  0020                     memcmp@s2:	; 1 bytes @ 0x0
  1647                           	global	?_memcmp
  1648  0020                     ?_memcmp: ;@ 0x0
  1649                           	global	__delay$0
  1650  0020                     __delay$0:	; 4 bytes @ 0x0
  1651  0020                     	ds	1
  1652                           	global	memset@p
  1653  0021                     memset@p:	; 1 bytes @ 0x1
  1654                           	global	memcpy@n
  1655  0021                     memcpy@n:	; 2 bytes @ 0x1
  1656                           	global	memcmp@n
  1657  0021                     memcmp@n:	; 2 bytes @ 0x1
  1658  0021                     	ds	1
  1659                           	global	?_memset
  1660  0022                     ?_memset: ;@ 0x2
  1661                           	global	memset@c
  1662  0022                     memset@c:	; 2 bytes @ 0x2
  1663  0022                     	ds	2
  1664                           	global	?_IR_NEC_DataCode_BitOn_Send
  1665  0024                     ?_IR_NEC_DataCode_BitOn_Send: ;@ 0x4
  1666                           	global	??_IR_KDN_format
  1667  0024                     ??_IR_KDN_format: ;@ 0x4
  1668                           	global	?_IR_KDN_ReaderCode_Send
  1669  0024                     ?_IR_KDN_ReaderCode_Send: ;@ 0x4
  1670                           	global	?_IR_KDN_DataCode_StopBit_Send
  1671  0024                     ?_IR_KDN_DataCode_StopBit_Send: ;@ 0x4
  1672                           	global	?_IR_KDN_DataCode_BitOn_Send
  1673  0024                     ?_IR_KDN_DataCode_BitOn_Send: ;@ 0x4
  1674                           	global	?_IR_NEC_ReaderCode_Send
  1675  0024                     ?_IR_NEC_ReaderCode_Send: ;@ 0x4
  1676                           	global	?_IR_NEC_DataCode_BitOff_Send
  1677  0024                     ?_IR_NEC_DataCode_BitOff_Send: ;@ 0x4
  1678                           	global	?_IR_NEC_DataCode_StopBit_Send
  1679  0024                     ?_IR_NEC_DataCode_StopBit_Send: ;@ 0x4
  1680                           	global	?_lcd_goto_posi
  1681  0024                     ?_lcd_goto_posi: ;@ 0x4
  1682                           	global	?_IR_KDN_DataCode_BitOff_Send
  1683  0024                     ?_IR_KDN_DataCode_BitOff_Send: ;@ 0x4
  1684                           	global	lcd_put_char@data
  1685  0024                     lcd_put_char@data:	; 1 bytes @ 0x4
  1686                           	global	IR_NEC_format@j
  1687  0024                     IR_NEC_format@j:	; 1 bytes @ 0x4
  1688                           	global	memset@n
  1689  0024                     memset@n:	; 2 bytes @ 0x4
  1690  0024                     	ds	1
  1691                           	global	IR_NEC_format@i
  1692  0025                     IR_NEC_format@i:	; 1 bytes @ 0x5
  1693                           	global	lcd_put_char@temp
  1694  0025                     lcd_put_char@temp:	; 1 bytes @ 0x5
  1695  0025                     	ds	1
  1696                           	global	?_IR_NEC_format
  1697  0026                     ?_IR_NEC_format: ;@ 0x6
  1698                           	global	?_lcd_put_char
  1699  0026                     ?_lcd_put_char: ;@ 0x6
  1700                           	global	??_lcd_put_ir_format
  1701  0026                     ??_lcd_put_ir_format: ;@ 0x6
  1702                           	global	lcd_put_hex@data
  1703  0026                     lcd_put_hex@data:	; 1 bytes @ 0x6
  1704                           	global	ir_recieve@s_data
  1705  0026                     ir_recieve@s_data:	; 1 bytes @ 0x6
  1706                           	global	IR_NEC_format@tbl_p
  1707  0026                     IR_NEC_format@tbl_p:	; 2 bytes @ 0x6
  1708  0026                     	ds	1
  1709                           	global	ir_recieve@i
  1710  0027                     ir_recieve@i:	; 1 bytes @ 0x7
  1711                           	global	lcd_put_hex@lo
  1712  0027                     lcd_put_hex@lo:	; 1 bytes @ 0x7
  1713  0027                     	ds	1
  1714                           	global	?_IR_KDN_format
  1715  0028                     ?_IR_KDN_format: ;@ 0x8
  1716                           	global	lcd_put_hex@hi
  1717  0028                     lcd_put_hex@hi:	; 1 bytes @ 0x8
  1718                           	global	IR_KDN_format@tbl_p
  1719  0028                     IR_KDN_format@tbl_p:	; 2 bytes @ 0x8
  1720  0028                     	ds	1
  1721                           	global	lcd_put_ir_data@ir_data
  1722  0029                     lcd_put_ir_data@ir_data:	; 1 bytes @ 0x9
  1723  0029                     	ds	1
  1724                           	global	??_ir_out_start
  1725  002A                     ??_ir_out_start: ;@ 0xA
  1726                           	global	lcd_put_ir_data@ir_char
  1727  002A                     lcd_put_ir_data@ir_char:	; 1 bytes @ 0xA
  1728                           	global	lcd_put_ir_format@kdn
  1729  002A                     lcd_put_ir_format@kdn:	; 8 bytes @ 0xA
  1730  002A                     	ds	1
  1731                           	global	lcd_put_ir_data@i
  1732  002B                     lcd_put_ir_data@i:	; 1 bytes @ 0xB
  1733  002B                     	ds	1
  1734                           	global	?_lcd_put_ir_data
  1735  002C                     ?_lcd_put_ir_data: ;@ 0xC
  1736                           	global	lcd_put_ir_data@size
  1737  002C                     lcd_put_ir_data@size:	; 1 bytes @ 0xC
  1738  002C                     	ds	1
  1739                           	global	ir_out_start@format
  1740  002D                     ir_out_start@format:	; 1 bytes @ 0xD
  1741  002D                     	ds	1
  1742                           	global	ir_out_start@data_p
  1743  002E                     ir_out_start@data_p:	; 2 bytes @ 0xE
  1744  002E                     	ds	2
  1745                           	global	ir_out_start@func_key
  1746  0030                     ir_out_start@func_key:	; 1 bytes @ 0x10
  1747  0030                     	ds	1
  1748                           	global	?_ir_out_start
  1749  0031                     ?_ir_out_start: ;@ 0x11
  1750                           	global	ir_out_start@key_code
  1751  0031                     ir_out_start@key_code:	; 1 bytes @ 0x11
  1752  0031                     	ds	1
  1753                           	global	lcd_put_ir_format@ukn
  1754  0032                     lcd_put_ir_format@ukn:	; 7 bytes @ 0x12
  1755  0032                     	ds	7
  1756                           	global	lcd_put_ir_format@nec
  1757  0039                     lcd_put_ir_format@nec:	; 3 bytes @ 0x19
  1758  0039                     	ds	3
  1759                           	global	lcd_put_ir_format@format
  1760  003C                     lcd_put_ir_format@format:	; 1 bytes @ 0x1C
  1761  003C                     	ds	1
  1762                           	global	lcd_put_ir_format@i
  1763  003D                     lcd_put_ir_format@i:	; 1 bytes @ 0x1D
  1764  003D                     	ds	1
  1765                           	global	?_lcd_put_ir_format
  1766  003E                     ?_lcd_put_ir_format: ;@ 0x1E
  1767                           	global	??_main
  1768  003E                     ??_main: ;@ 0x1E
  1769  003E                     	ds	2
  1770                           	global	?_main
  1771  0040                     ?_main: ;@ 0x20
  1772                           ;Data sizes: Strings 0, constant 388, data 18, bss 52, persistent 0 stack 0
  1773                           ;Auto spaces:   Size  Autos    Used
  1774                           ; COMMON          14      6      10
  1775                           ; BANK0           80     32      70
  1776                           ; BANK1           80      5      33
  1777                           ; BANK3           96      0       0
  1778                           ; BANK2           96      0       0
  1779                           
  1780                           
  1781                           ;Pointer list with targets:
  1782                           
  1783                           ;sp__memcpy	PTR void  size(1); Largest target is 8
  1784                           ;		 -> eep_wdata(BANK0[7]), pre_data(BANK0[8]), 
  1785                           ;sp__memset	PTR void  size(1); Largest target is 8
  1786                           ;		 -> rcv_data(BANK0[8]), pre_data(BANK0[8]), 
  1787                           ;IR_NEC_format@tbl_p	PTR unsigned char  size(2); Largest target is 96
  1788                           ;		 -> eep_rdata(BANK1[28]), ir_func1_code_tbl(CODE[96]), ir_func2_code_tbl(CODE[96]), i
                                 r_func3_code_tbl(CODE[96]), 
  1789                           ;		 -> ir_func4_code_tbl(CODE[96]), 
  1790                           ;IR_KDN_format@tbl_p	PTR unsigned char  size(2); Largest target is 96
  1791                           ;		 -> eep_rdata(BANK1[28]), ir_func1_code_tbl(CODE[96]), ir_func2_code_tbl(CODE[96]), i
                                 r_func3_code_tbl(CODE[96]), 
  1792                           ;		 -> ir_func4_code_tbl(CODE[96]), 
  1793                           ;ir_out_start@data_p	PTR unsigned char  size(2); Largest target is 96
  1794                           ;		 -> ir_func1_code_tbl(CODE[96]), ir_func2_code_tbl(CODE[96]), ir_func3_code_tbl(CODE[
                                 96]), ir_func4_code_tbl(CODE[96]), 
  1795                           ;lcd_put_ir_data@ir_data	PTR unsigned char  size(1); Largest target is 8
  1796                           ;		 -> rcv_data(BANK0[8]), 
  1797                           ;?_memcpy	PTR void  size(1); Largest target is 8
  1798                           ;		 -> eep_wdata(BANK0[7]), pre_data(BANK0[8]), 
  1799                           ;?_memset	PTR void  size(1); Largest target is 8
  1800                           ;		 -> rcv_data(BANK0[8]), pre_data(BANK0[8]), 
  1801                           ;memcmp@s2	PTR const void  size(1); Largest target is 8
  1802                           ;		 -> rcv_data(BANK0[8]), 
  1803                           ;memcmp@s1	PTR const void  size(1); Largest target is 8
  1804                           ;		 -> pre_data(BANK0[8]), 
  1805                           ;memcpy@s	PTR const unsigned char  size(1); Largest target is 8
  1806                           ;		 -> rcv_data(BANK0[8]), 
  1807                           ;memcpy@s1	PTR const void  size(1); Largest target is 8
  1808                           ;		 -> rcv_data(BANK0[8]), 
  1809                           ;memcpy@d	PTR unsigned char  size(1); Largest target is 8
  1810                           ;		 -> eep_wdata(BANK0[7]), pre_data(BANK0[8]), 
  1811                           ;memcpy@d1	PTR void  size(1); Largest target is 8
  1812                           ;		 -> eep_wdata(BANK0[7]), pre_data(BANK0[8]), 
  1813                           ;memset@p	PTR unsigned char  size(1); Largest target is 8
  1814                           ;		 -> rcv_data(BANK0[8]), pre_data(BANK0[8]), 
  1815                           ;memset@p1	PTR void  size(1); Largest target is 8
  1816                           ;		 -> rcv_data(BANK0[8]), pre_data(BANK0[8]), 
  1817                           ;?_memcmp	int  size(1); Largest target is 0
  1818                           
  1819                           
  1820                           ;Main: autosize = 0, tempsize = 2, incstack = 0, save=0
  1821                           
  1822                           
  1823                           ;Call graph:                      Base Space Used Autos Args Refs Density
  1824                           ;_main                                                7    0 4926   0.00
  1825                           ;                                   30 BANK0    2
  1826                           ;                                    0 BANK1    5
  1827                           ;        _led_control
  1828                           ;    _key_input_check
  1829                           ;          _cpu_sleep
  1830                           ;       _ir_out_start
  1831                           ;         _ir_recieve
  1832                           ;             __delay
  1833                           ;             _memcpy
  1834                           ;             ___bmul
  1835                           ;      _IR_NEC_format
  1836                           ;      _IR_KDN_format
  1837                           ;           _lcd_init
  1838                           ;             _memset
  1839                           ;     _motion_control
  1840                           ;             _memcmp
  1841                           ;          _lcd_clear
  1842                           ;  _lcd_put_ir_format
  1843                           ;    _lcd_put_ir_data
  1844                           ;  _memcmp                                            3    3  126   0.00
  1845                           ;                                    0 COMMO    3
  1846                           ;                                    0 BANK0    3
  1847                           ;  _motion_control                                    1    0   24   0.00
  1848                           ;                                    0 COMMO    1
  1849                           ;  _lcd_put_ir_format                                24    0  654   0.00
  1850                           ;                                    6 BANK0   24
  1851                           ;      _lcd_goto_posi
  1852                           ;       _lcd_put_char
  1853                           ;  _lcd_clear                                         2    0    0   0.00
  1854                           ;                                    0 COMMO    2
  1855                           ;           _toggle_E
  1856                           ;             __delay
  1857                           ;  _memcpy                                            4    3  138   0.00
  1858                           ;                                    0 COMMO    4
  1859                           ;                                    0 BANK0    3
  1860                           ;  ___bmul                                            3    1  108   0.00
  1861                           ;                                    0 COMMO    4
  1862                           ;  _lcd_init                                          2    0    0   0.00
  1863                           ;                                    0 COMMO    2
  1864                           ;             __delay
  1865                           ;           _toggle_E
  1866                           ;  _ir_recieve                                        5    0  891   0.00
  1867                           ;                                    1 COMMO    2
  1868                           ;                                    6 BANK0    2
  1869                           ;             _memset
  1870                           ;        _Timer_Reset
  1871                           ;  _cpu_sleep                                         1    0    0   0.00
  1872                           ;                                    0 COMMO    1
  1873                           ;             __delay
  1874                           ;  _ir_out_start                                      7    1  639   0.00
  1875                           ;                                   10 BANK0    8
  1876                           ;      _IR_NEC_format
  1877                           ;      _IR_KDN_format
  1878                           ;  _led_control                                       2    0   48   0.00
  1879                           ;                                    0 COMMO    2
  1880                           ;  _key_input_check                                   3    0  177   0.00
  1881                           ;                                    0 COMMO    3
  1882                           ;             __delay
  1883                           ;  _lcd_put_ir_data                                   4    1  732   0.00
  1884                           ;                                    3 COMMO    1
  1885                           ;                                    9 BANK0    4
  1886                           ;      _lcd_goto_posi
  1887                           ;        _lcd_put_hex
  1888                           ;    _memset                                          3    4  108   0.00
  1889                           ;                                    0 COMMO    1
  1890                           ;                                    0 BANK0    6
  1891                           ;    _Timer_Reset                                     0    0    0   0.00
  1892                           ;    _lcd_goto_posi                                   3    0  159   0.00
  1893                           ;                                    0 COMMO    3
  1894                           ;           _toggle_E
  1895                           ;             __delay
  1896                           ;    _IR_NEC_format                                   6    2  180   0.00
  1897                           ;                                    2 COMMO    4
  1898                           ;                                    4 BANK0    4
  1899                           ;_IR_NEC_ReaderCode_S
  1900                           ;_IR_NEC_DataCode_Bit
  1901                           ;_IR_NEC_DataCode_Bit
  1902                           ;_IR_NEC_DataCode_Sto
  1903                           ;             __delay
  1904                           ;    _IR_KDN_format                                   6    2  180   0.00
  1905                           ;                                    2 COMMO    2
  1906                           ;                                    4 BANK0    6
  1907                           ;_IR_KDN_ReaderCode_S
  1908                           ;_IR_KDN_DataCode_Bit
  1909                           ;_IR_KDN_DataCode_Bit
  1910                           ;_IR_KDN_DataCode_Sto
  1911                           ;             __delay
  1912                           ;    _lcd_put_hex                                     4    0  441   0.00
  1913                           ;                                    1 COMMO    1
  1914                           ;                                    6 BANK0    3
  1915                           ;       _lcd_put_char
  1916                           ;      _lcd_put_char                                  3    0  156   0.00
  1917                           ;                                    0 COMMO    1
  1918                           ;                                    4 BANK0    2
  1919                           ;           _toggle_E
  1920                           ;             __delay
  1921                           ;      _IR_NEC_DataCode_BitOff_Send                   1    0    0   0.00
  1922                           ;                                    0 COMMO    1
  1923                           ;             __delay
  1924                           ;      _IR_NEC_DataCode_StopBit_Send                  1    0    0   0.00
  1925                           ;                                    0 COMMO    1
  1926                           ;             __delay
  1927                           ;      _IR_NEC_ReaderCode_Send                        2    0    0   0.00
  1928                           ;                                    0 COMMO    2
  1929                           ;             __delay
  1930                           ;      _IR_NEC_DataCode_BitOn_Send                    1    0    0   0.00
  1931                           ;                                    0 COMMO    1
  1932                           ;             __delay
  1933                           ;      _IR_KDN_ReaderCode_Send                        2    0    0   0.00
  1934                           ;                                    0 COMMO    2
  1935                           ;             __delay
  1936                           ;      _IR_KDN_DataCode_StopBit_Send                  1    0    0   0.00
  1937                           ;                                    0 COMMO    1
  1938                           ;             __delay
  1939                           ;      _IR_KDN_DataCode_BitOff_Send                   1    0    0   0.00
  1940                           ;                                    0 COMMO    1
  1941                           ;             __delay
  1942                           ;      _IR_KDN_DataCode_BitOn_Send                    1    0    0   0.00
  1943                           ;                                    0 COMMO    1
  1944                           ;             __delay
  1945                           ;        __delay                                      0    4    0   0.00
  1946                           ;                                    0 BANK0    4
  1947                           ;        _toggle_E                                    0    0    0   0.00
  1948                           ; Estimated maximum call depth 4
  1949                           ; Address spaces:
  1950                           
  1951                           ;Name               Size   Autos  Total    Cost      Usage
  1952                           ;BITCOMMON            E      0       0       0        0.0%
  1953                           ;CODE                 0      0       0       0        0.0%
  1954                           ;NULL                 0      0       0       0        0.0%
  1955                           ;COMMON               E      6       A       1       71.4%
  1956                           ;SFR0                 0      0       0       1        0.0%
  1957                           ;BITSFR0              0      0       0       1        0.0%
  1958                           ;BITSFR1              0      0       0       2        0.0%
  1959                           ;SFR1                 0      0       0       2        0.0%
  1960                           ;ABS                  0      0      71       2        0.0%
  1961                           ;STACK                0      0       0       3        0.0%
  1962                           ;BITBANK0            50      0       0       4        0.0%
  1963                           ;SFR3                 0      0       0       4        0.0%
  1964                           ;BITSFR3              0      0       0       4        0.0%
  1965                           ;BANK0               50     20      46       5       87.5%
  1966                           ;BITSFR2              0      0       0       5        0.0%
  1967                           ;SFR2                 0      0       0       5        0.0%
  1968                           ;BITBANK1            50      0       0       6        0.0%
  1969                           ;BANK1               50      5      21       7       41.3%
  1970                           ;BITBANK3            60      0       0       8        0.0%
  1971                           ;BANK3               60      0       0       9        0.0%
  1972                           ;BITBANK2            60      0       0      10        0.0%
  1973                           ;BANK2               60      0       0      11        0.0%
  1974                           ;DATA                 0      0      71      12        0.0%
  1975                           ;EEDATA             100      0       0    1000        0.0%
  1976                           
  1977                           	global	_main
  1978                           psect	maintext,local,class=CODE,delta=2
  1979                           global __pmaintext
  1980  0491                     __pmaintext:
  1981                           
  1982                           ; *************** function _main *****************
  1983                           ; Defined at:
  1984                           ;		line 188 in file "C:\Users\denjo\Documents\PIC\infrated_ray\ir_main.c"
  1985                           ; Parameters:    Size  Location     Type
  1986                           ;		None
  1987                           ; Auto vars:     Size  Location     Type
  1988                           ;  key_code        1    4[BANK1 ] unsigned char 
  1989                           ;  i               1    3[BANK1 ] unsigned char 
  1990                           ;  eep_offset      1    2[BANK1 ] unsigned char 
  1991                           ;  ir_state        1    1[BANK1 ] unsigned char 
  1992                           ;  func_key_typ    1    0[BANK1 ] unsigned char 
  1993                           ; Return value:  Size  Location     Type
  1994                           ;		None               void
  1995                           ; Registers used:
  1996                           ;		wreg, fsr0l, fsr0h, fsr1l, fsr1h, status,2, status,0, btemp+0, btemp+1, btemp+2, btem
                                 p+3, pclath, cstack
  1997                           ; Tracked objects:
  1998                           ;		On entry : 17F/0
  1999                           ;		On exit  : 0/0
  2000                           ;		Unchanged: 0/0
  2001                           ; Data sizes:     COMMON   BANK0   BANK1   BANK3   BANK2
  2002                           ;      Locals:         0       2       5       0       0
  2003                           ;      Temp:     2
  2004                           ;      Total:    7
  2005                           ; This function calls:
  2006                           ;		_led_control
  2007                           ;		_key_input_check
  2008                           ;		_cpu_sleep
  2009                           ;		_ir_out_start
  2010                           ;		_ir_recieve
  2011                           ;		__delay
  2012                           ;		_memcpy
  2013                           ;		___bmul
  2014                           ;		_IR_NEC_format
  2015                           ;		_IR_KDN_format
  2016                           ;		_lcd_init
  2017                           ;		_memset
  2018                           ;		_motion_control
  2019                           ;		_memcmp
  2020                           ;		_lcd_clear
  2021                           ;		_lcd_put_ir_format
  2022                           ;		_lcd_put_ir_data
  2023                           ; This function is called by:
  2024                           ;		Startup code after reset
  2025                           ; This function uses a non-reentrant model
  2026                           ; 
  2027                           psect	maintext
  2028                           	file	"C:\Users\denjo\Documents\PIC\infrated_ray\ir_main.c"
  2029                           	line	188
  2030                           	global	__size_of_main
  2031  036F                     	__size_of_main	equ	__end_of_main-_main
  2032                           ;ir_main.c: 187: void main()
  2033                           ;ir_main.c: 188: {
  2034                           	
  2035  0491                     _main:	
  2036                           	opt stack 7
  2037                           ; Regs used in _main: [allreg]
  2038                           	line	197
  2039                           	
  2040  0491                     l30002700:	
  2041                           ;ir_main.c: 189: unsigned char i;
  2042                           ;ir_main.c: 190: unsigned char ir_state;
  2043                           ;ir_main.c: 191: unsigned char key_code;
  2044                           ;ir_main.c: 192: unsigned char func_key_type;
  2045                           ;ir_main.c: 193: unsigned char eep_offset;
  2046                           ;ir_main.c: 197: TRISA = 0xCF;
  2047  0491  30CF               	movlw	(0CFh)
  2048  0492  1683               	bsf	status, 5	;RP0=1, select bank1
  2049  0493  1303               	bcf	status, 6	;RP1=0, select bank1
  2050  0494  0085               	movwf	(133)^080h	;volatile
  2051                           	
  2052  0495                     l30002701:	
  2053                           	line	198
  2054                           ;ir_main.c: 198: TRISB = 0x00;
  2055  0495  1003               	clrc
  2056  0496  3000               	movlw	0
  2057  0497  1803               	btfsc	status,0
  2058  0498  3001               	movlw	1
  2059  0499  0086               	movwf	(134)^080h	;volatile
  2060                           	
  2061  049A                     l30002702:	
  2062                           	line	200
  2063                           ;ir_main.c: 200: TRISC = 0x81;
  2064  049A  3081               	movlw	(081h)
  2065  049B  0087               	movwf	(135)^080h	;volatile
  2066                           	line	203
  2067                           ;ir_main.c: 203: ADCON0 = 0x00;
  2068  049C  1003               	clrc
  2069  049D  3000               	movlw	0
  2070  049E  1803               	btfsc	status,0
  2071  049F  3001               	movlw	1
  2072  04A0  1283               	bcf	status, 5	;RP0=0, select bank0
  2073  04A1  1303               	bcf	status, 6	;RP1=0, select bank0
  2074  04A2  009F               	movwf	(31)	;volatile
  2075                           	line	204
  2076                           ;ir_main.c: 204: ANSEL = 0x00;
  2077  04A3  1003               	clrc
  2078  04A4  3000               	movlw	0
  2079  04A5  1803               	btfsc	status,0
  2080  04A6  3001               	movlw	1
  2081  04A7  1683               	bsf	status, 5	;RP0=1, select bank3
  2082  04A8  1703               	bsf	status, 6	;RP1=1, select bank3
  2083  04A9  0088               	movwf	(392)^0180h
  2084                           	line	205
  2085                           ;ir_main.c: 205: ANSELH = 0x00;
  2086  04AA  1003               	clrc
  2087  04AB  3000               	movlw	0
  2088  04AC  1803               	btfsc	status,0
  2089  04AD  3001               	movlw	1
  2090  04AE  0089               	movwf	(393)^0180h
  2091                           	
  2092  04AF                     l30002703:	
  2093                           	line	208
  2094                           ;ir_main.c: 208: CM1CON0 = 0x07;
  2095  04AF  3007               	movlw	(07h)
  2096  04B0  1283               	bcf	status, 5	;RP0=0, select bank2
  2097  04B1  1703               	bsf	status, 6	;RP1=1, select bank2
  2098  04B2  0087               	movwf	(263)^0100h	;volatile
  2099                           	
  2100  04B3                     l30002704:	
  2101                           	line	209
  2102                           ;ir_main.c: 209: CM2CON0 = 0x07;
  2103  04B3  3007               	movlw	(07h)
  2104  04B4  0088               	movwf	(264)^0100h	;volatile
  2105                           	
  2106  04B5                     l30002705:	
  2107                           	line	212
  2108                           ;ir_main.c: 212: PR2 = 0x19;
  2109  04B5  3019               	movlw	(019h)
  2110  04B6  1683               	bsf	status, 5	;RP0=1, select bank1
  2111  04B7  1303               	bcf	status, 6	;RP1=0, select bank1
  2112  04B8  0092               	movwf	(146)^080h
  2113                           	
  2114  04B9                     l30002706:	
  2115                           	line	213
  2116                           ;ir_main.c: 213: T2CON = 0x0C;
  2117  04B9  300C               	movlw	(0Ch)
  2118  04BA  1283               	bcf	status, 5	;RP0=0, select bank0
  2119  04BB  1303               	bcf	status, 6	;RP1=0, select bank0
  2120  04BC  0092               	movwf	(18)
  2121                           	
  2122  04BD                     l30002707:	
  2123                           	line	216
  2124                           ;ir_main.c: 216: CCPR2L = 0x0C;
  2125  04BD  300C               	movlw	(0Ch)
  2126  04BE  009B               	movwf	(27)	;volatile
  2127                           	
  2128  04BF                     l30002708:	
  2129                           	line	219
  2130                           ;ir_main.c: 219: CCP2CON = 0x20;
  2131  04BF  3020               	movlw	(020h)
  2132  04C0  009D               	movwf	(29)	;volatile
  2133                           	
  2134  04C1                     l30002709:	
  2135                           	line	223
  2136                           ;ir_main.c: 223: T1CON = 0x01;
  2137  04C1  0190               	clrf	(16)
  2138  04C2  1403               	bsf	status,0
  2139  04C3  0D90               	rlf	(16),f
  2140                           	
  2141  04C4                     l30002710:	
  2142                           	line	226
  2143                           ;ir_main.c: 226: TMR1L = 0;
  2144  04C4  1003               	clrc
  2145  04C5  3000               	movlw	0
  2146  04C6  1803               	btfsc	status,0
  2147  04C7  3001               	movlw	1
  2148  04C8  008E               	movwf	(14)	;volatile
  2149                           	
  2150  04C9                     l30002711:	
  2151                           	line	227
  2152                           ;ir_main.c: 227: TMR1H = 0;
  2153  04C9  1003               	clrc
  2154  04CA  3000               	movlw	0
  2155  04CB  1803               	btfsc	status,0
  2156  04CC  3001               	movlw	1
  2157  04CD  008F               	movwf	(15)	;volatile
  2158                           	
  2159  04CE                     l30002712:	
  2160                           	line	228
  2161                           ;ir_main.c: 228: TMR1IF = 0;
  2162  04CE  100C               	bcf	(96/8),(96)&7
  2163                           	
  2164  04CF                     l30002713:	
  2165                           	line	229
  2166                           ;ir_main.c: 229: TMR1IE = 1;
  2167  04CF  1683               	bsf	status, 5	;RP0=1, select bank1
  2168  04D0  1303               	bcf	status, 6	;RP1=0, select bank1
  2169  04D1  140C               	bsf	(1120/8)^080h,(1120)&7
  2170                           	
  2171  04D2                     l30002714:	
  2172                           	line	232
  2173                           ;ir_main.c: 232: PORTA = 0x00;
  2174  04D2  1003               	clrc
  2175  04D3  3000               	movlw	0
  2176  04D4  1803               	btfsc	status,0
  2177  04D5  3001               	movlw	1
  2178  04D6  1283               	bcf	status, 5	;RP0=0, select bank0
  2179  04D7  1303               	bcf	status, 6	;RP1=0, select bank0
  2180  04D8  0085               	movwf	(5)	;volatile
  2181                           	
  2182  04D9                     l30002715:	
  2183                           	line	233
  2184                           ;ir_main.c: 233: PORTB = 0x00;
  2185  04D9  1003               	clrc
  2186  04DA  3000               	movlw	0
  2187  04DB  1803               	btfsc	status,0
  2188  04DC  3001               	movlw	1
  2189  04DD  0086               	movwf	(6)	;volatile
  2190                           	line	235
  2191                           ;ir_main.c: 235: PORTC = 0x01;
  2192  04DE  3001               	movlw	(01h)
  2193  04DF  0087               	movwf	(7)	;volatile
  2194                           	
  2195  04E0                     l30002716:	
  2196                           	line	240
  2197                           ;ir_main.c: 240: if ((PORTA & 0xC0) == 0xC0) {
  2198  04E0  0805               	movf	(5),w	;volatile
  2199  04E1  39C0               	andlw	0C0h
  2200  04E2  3AC0               	xorlw	0C0h
  2201  04E3  1D03               	skipz
  2202  04E4  2CE6               	goto	u2571
  2203  04E5  2CE7               	goto	u2570
  2204  04E6                     u2571:
  2205  04E6  2D33               	goto	l30002726
  2206  04E7                     u2570:
  2207                           	
  2208  04E7                     l30002717:	
  2209                           	line	242
  2210                           ;ir_main.c: 242: func_key_type = KEY_CODE01;
  2211  04E7  1003               	clrc
  2212  04E8  3000               	movlw	0
  2213  04E9  1803               	btfsc	status,0
  2214  04EA  3001               	movlw	1
  2215  04EB  1683               	bsf	status, 5	;RP0=1, select bank1
  2216  04EC  1303               	bcf	status, 6	;RP1=0, select bank1
  2217  04ED  00BC               	movwf	(main@func_key_type)^080h
  2218                           	
  2219  04EE                     l30002718:	
  2220                           	line	244
  2221                           ;ir_main.c: 244: led_control(0x04);
  2222  04EE  3004               	movlw	(04h)
  2223  04EF  120A  118A  2007   	fcall	_led_control
              120A  118A         
  2224                           	
  2225  04F4                     l30002719:	
  2226                           	line	249
  2227                           ;ir_main.c: 247: {
  2228                           ;ir_main.c: 249: key_code = key_input_check();
  2229  04F4  120A  118A  20F4   	fcall	_key_input_check
              120A  118A         
  2230  04F9  1683               	bsf	status, 5	;RP0=1, select bank1
  2231  04FA  1303               	bcf	status, 6	;RP1=0, select bank1
  2232  04FB  00C0               	movwf	(main@key_code)^080h
  2233                           	
  2234  04FC                     l30002720:	
  2235                           	line	252
  2236                           ;ir_main.c: 252: if (key_code == KEY_OFF) {
  2237  04FC  0840               	movf	(main@key_code)^080h,w
  2238  04FD  3AFF               	xorlw	0FFh
  2239  04FE  1D03               	skipz
  2240  04FF  2D01               	goto	u2581
  2241  0500  2D02               	goto	u2580
  2242  0501                     u2581:
  2243  0501  2D08               	goto	l30002722
  2244  0502                     u2580:
  2245                           	
  2246  0502                     l30002721:	
  2247                           	line	254
  2248                           ;ir_main.c: 254: cpu_sleep();
  2249  0502  120A  158A  232E   	fcall	_cpu_sleep
              120A  118A         
  2250  0507  2CF4               	goto	l30002719
  2251                           	
  2252  0508                     l30002722:	
  2253                           	line	259
  2254                           ;ir_main.c: 257: else {
  2255                           ;ir_main.c: 259: if (key_code <= KEY_CODE04) {
  2256  0508  3004               	movlw	(04h)
  2257  0509  0240               	subwf	(main@key_code)^080h,w
  2258  050A  1803               	skipnc
  2259  050B  2D0D               	goto	u2591
  2260  050C  2D0E               	goto	u2590
  2261  050D                     u2591:
  2262  050D  2D26               	goto	l30002725
  2263  050E                     u2590:
  2264                           	
  2265  050E                     l30002723:	
  2266                           	line	261
  2267                           ;ir_main.c: 261: func_key_type = key_code;
  2268  050E  0840               	movf	(main@key_code)^080h,w
  2269  050F  00BC               	movwf	(main@func_key_type)^080h
  2270                           	
  2271  0510                     l30002724:	
  2272                           	line	263
  2273                           ;ir_main.c: 263: led_control((0x04 << key_code));
  2274  0510  3004               	movlw	(04h)
  2275  0511  1283               	bcf	status, 5	;RP0=0, select bank0
  2276  0512  1303               	bcf	status, 6	;RP1=0, select bank0
  2277  0513  00BE               	movwf	(??_main+0+0)
  2278  0514  1683               	bsf	status, 5	;RP0=1, select bank1
  2279  0515  1303               	bcf	status, 6	;RP1=0, select bank1
  2280  0516  0A40               	incf	(main@key_code)^080h,w
  2281  0517  2D1C               	goto	u2604
  2282  0518                     u2605:
  2283  0518  1003               	clrc
  2284  0519  1283               	bcf	status, 5	;RP0=0, select bank0
  2285  051A  1303               	bcf	status, 6	;RP1=0, select bank0
  2286  051B  0DBE               	rlf	(??_main+0+0),f
  2287  051C                     u2604:
  2288  051C  3EFF               	addlw	-1
  2289  051D  1D03               	skipz
  2290  051E  2D18               	goto	u2605
  2291  051F  083E               	movf	0+(??_main+0+0),w
  2292  0520  120A  118A  2007   	fcall	_led_control
              120A  118A         
  2293  0525  2CF4               	goto	l30002719
  2294                           	
  2295  0526                     l30002725:	
  2296                           	line	268
  2297                           ;ir_main.c: 266: else {
  2298                           ;ir_main.c: 268: ir_out_start(func_key_type, key_code);
  2299  0526  0840               	movf	(main@key_code)^080h,w
  2300  0527  1283               	bcf	status, 5	;RP0=0, select bank0
  2301  0528  1303               	bcf	status, 6	;RP1=0, select bank0
  2302  0529  00B1               	movwf	(?_ir_out_start)
  2303  052A  1683               	bsf	status, 5	;RP0=1, select bank1
  2304  052B  1303               	bcf	status, 6	;RP1=0, select bank1
  2305  052C  083C               	movf	(main@func_key_type)^080h,w
  2306  052D  120A  158A  276B   	fcall	_ir_out_start
              120A  118A         
  2307  0532  2CF4               	goto	l30002719
  2308                           	
  2309  0533                     l30002726:	
  2310                           	line	277
  2311                           ;ir_main.c: 272: }
  2312                           ;ir_main.c: 277: if ((PORTA & 0xC0) == 0x40) {
  2313  0533  0805               	movf	(5),w	;volatile
  2314  0534  39C0               	andlw	0C0h
  2315  0535  3A40               	xorlw	040h
  2316  0536  1D03               	skipz
  2317  0537  2D39               	goto	u2611
  2318  0538  2D3A               	goto	u2610
  2319  0539                     u2611:
  2320  0539  2E7C               	goto	l30002778
  2321  053A                     u2610:
  2322                           	
  2323  053A                     l30002727:	
  2324                           	line	279
  2325                           ;ir_main.c: 279: led_control(0x3C);
  2326  053A  303C               	movlw	(03Ch)
  2327  053B  120A  118A  2007   	fcall	_led_control
              120A  118A         
  2328                           	
  2329  0540                     l30002728:	
  2330                           	line	283
  2331                           ;ir_main.c: 283: key_code = key_input_check();
  2332  0540  120A  118A  20F4   	fcall	_key_input_check
              120A  118A         
  2333  0545  1683               	bsf	status, 5	;RP0=1, select bank1
  2334  0546  1303               	bcf	status, 6	;RP1=0, select bank1
  2335  0547  00C0               	movwf	(main@key_code)^080h
  2336                           	
  2337  0548                     l30002729:	
  2338                           	line	285
  2339                           ;ir_main.c: 285: if (key_code <= KEY_CODE04) {
  2340  0548  3004               	movlw	(04h)
  2341  0549  0240               	subwf	(main@key_code)^080h,w
  2342  054A  1803               	skipnc
  2343  054B  2D4D               	goto	u2621
  2344  054C  2D4E               	goto	u2620
  2345  054D                     u2621:
  2346  054D  2D40               	goto	l30002728
  2347  054E                     u2620:
  2348                           	
  2349  054E                     l30002730:	
  2350                           	line	287
  2351                           ;ir_main.c: 287: func_key_type = key_code;
  2352  054E  0840               	movf	(main@key_code)^080h,w
  2353  054F  00BC               	movwf	(main@func_key_type)^080h
  2354                           	
  2355  0550                     l30002731:	
  2356                           	line	289
  2357                           ;ir_main.c: 289: led_control((0x04 << key_code));
  2358  0550  3004               	movlw	(04h)
  2359  0551  1283               	bcf	status, 5	;RP0=0, select bank0
  2360  0552  1303               	bcf	status, 6	;RP1=0, select bank0
  2361  0553  00BE               	movwf	(??_main+0+0)
  2362  0554  1683               	bsf	status, 5	;RP0=1, select bank1
  2363  0555  1303               	bcf	status, 6	;RP1=0, select bank1
  2364  0556  0A40               	incf	(main@key_code)^080h,w
  2365  0557  2D5C               	goto	u2634
  2366  0558                     u2635:
  2367  0558  1003               	clrc
  2368  0559  1283               	bcf	status, 5	;RP0=0, select bank0
  2369  055A  1303               	bcf	status, 6	;RP1=0, select bank0
  2370  055B  0DBE               	rlf	(??_main+0+0),f
  2371  055C                     u2634:
  2372  055C  3EFF               	addlw	-1
  2373  055D  1D03               	skipz
  2374  055E  2D58               	goto	u2635
  2375  055F  083E               	movf	0+(??_main+0+0),w
  2376  0560  120A  118A  2007   	fcall	_led_control
              120A  118A         
  2377                           	
  2378  0565                     l30002733:	
  2379                           	line	300
  2380                           ;ir_main.c: 300: ir_state = ir_recieve();
  2381  0565  120A  118A  22CC   	fcall	_ir_recieve
              120A  118A         
  2382  056A  1683               	bsf	status, 5	;RP0=1, select bank1
  2383  056B  1303               	bcf	status, 6	;RP1=0, select bank1
  2384  056C  00BD               	movwf	(main@ir_state)^080h
  2385                           	
  2386  056D                     l30002734:	
  2387                           	line	302
  2388                           ;ir_main.c: 302: if (ir_state == 0x00) {
  2389  056D  08BD               	movf	(main@ir_state)^080h,f
  2390  056E  1D03               	skipz
  2391  056F  2D71               	goto	u2641
  2392  0570  2D72               	goto	u2640
  2393  0571                     u2641:
  2394  0571  2D73               	goto	l30002737
  2395  0572                     u2640:
  2396  0572  2D9A               	goto	l30002741
  2397                           	
  2398  0573                     l30002737:	
  2399                           	line	307
  2400                           ;ir_main.c: 307: else if (ir_state == 0x0F) {
  2401  0573  083D               	movf	(main@ir_state)^080h,w
  2402  0574  3A0F               	xorlw	0Fh
  2403  0575  1D03               	skipz
  2404  0576  2D78               	goto	u2651
  2405  0577  2D79               	goto	u2650
  2406  0578                     u2651:
  2407  0578  2D65               	goto	l30002733
  2408  0579                     u2650:
  2409                           	
  2410  0579                     l30002738:	
  2411                           	line	310
  2412                           ;ir_main.c: 310: led_control(0xC3);
  2413  0579  30C3               	movlw	(0C3h)
  2414  057A  120A  118A  2007   	fcall	_led_control
              120A  118A         
  2415                           	
  2416  057F                     l30002739:	
  2417                           	line	311
  2418                           ;ir_main.c: 311: _delay((unsigned long)((150)*(4000000/4000.0)));
  2419  057F  30C3               	movlw	195
  2420  0580  1283               	bcf	status, 5	;RP0=0, select bank0
  2421  0581  1303               	bcf	status, 6	;RP1=0, select bank0
  2422  0582  00BF               movwf	(??_main+0+0+1),f
  2423  0583  30CD               	movlw	205
  2424  0584  00BE               movwf	(??_main+0+0),f
  2425  0585                     u3797:
  2426  0585  0BBE               	decfsz	(??_main+0+0),f
  2427  0586  2D85               	goto	u3797
  2428  0587  0BBF               	decfsz	(??_main+0+0+1),f
  2429  0588  2D85               	goto	u3797
  2430                           
  2431                           	
  2432  0589                     l30002740:	
  2433                           	line	312
  2434                           ;ir_main.c: 312: led_control(0x3C);
  2435  0589  303C               	movlw	(03Ch)
  2436  058A  120A  118A  2007   	fcall	_led_control
              120A  118A         
  2437                           	line	313
  2438                           ;ir_main.c: 313: _delay((unsigned long)((150)*(4000000/4000.0)));
  2439  058F  30C3               	movlw	195
  2440  0590  1283               	bcf	status, 5	;RP0=0, select bank0
  2441  0591  1303               	bcf	status, 6	;RP1=0, select bank0
  2442  0592  00BF               movwf	(??_main+0+0+1),f
  2443  0593  30CD               	movlw	205
  2444  0594  00BE               movwf	(??_main+0+0),f
  2445  0595                     u3807:
  2446  0595  0BBE               	decfsz	(??_main+0+0),f
  2447  0596  2D95               	goto	u3807
  2448  0597  0BBF               	decfsz	(??_main+0+0+1),f
  2449  0598  2D95               	goto	u3807
  2450                           
  2451  0599  2D79               	goto	l30002738
  2452                           	
  2453  059A                     l30002741:	
  2454                           	line	324
  2455                           ;ir_main.c: 324: for (i=0; i<2; i++) {
  2456  059A  1003               	clrc
  2457  059B  3000               	movlw	0
  2458  059C  1803               	btfsc	status,0
  2459  059D  3001               	movlw	1
  2460  059E  00BF               	movwf	(main@i)^080h
  2461                           	
  2462  059F                     l30002744:	
  2463                           	line	327
  2464                           ;ir_main.c: 327: led_control(0xC3);
  2465  059F  30C3               	movlw	(0C3h)
  2466  05A0  120A  118A  2007   	fcall	_led_control
              120A  118A         
  2467                           	
  2468  05A5                     l30002745:	
  2469                           	line	328
  2470                           ;ir_main.c: 328: _delay((unsigned long)((150)*(4000000/4000.0)));
  2471  05A5  30C3               	movlw	195
  2472  05A6  1283               	bcf	status, 5	;RP0=0, select bank0
  2473  05A7  1303               	bcf	status, 6	;RP1=0, select bank0
  2474  05A8  00BF               movwf	(??_main+0+0+1),f
  2475  05A9  30CD               	movlw	205
  2476  05AA  00BE               movwf	(??_main+0+0),f
  2477  05AB                     u3817:
  2478  05AB  0BBE               	decfsz	(??_main+0+0),f
  2479  05AC  2DAB               	goto	u3817
  2480  05AD  0BBF               	decfsz	(??_main+0+0+1),f
  2481  05AE  2DAB               	goto	u3817
  2482                           
  2483                           	
  2484  05AF                     l30002746:	
  2485                           	line	329
  2486                           ;ir_main.c: 329: led_control((0x04 << func_key_type));
  2487  05AF  3004               	movlw	(04h)
  2488  05B0  1283               	bcf	status, 5	;RP0=0, select bank0
  2489  05B1  1303               	bcf	status, 6	;RP1=0, select bank0
  2490  05B2  00BE               	movwf	(??_main+0+0)
  2491  05B3  1683               	bsf	status, 5	;RP0=1, select bank1
  2492  05B4  1303               	bcf	status, 6	;RP1=0, select bank1
  2493  05B5  0A3C               	incf	(main@func_key_type)^080h,w
  2494  05B6  2DBB               	goto	u2664
  2495  05B7                     u2665:
  2496  05B7  1003               	clrc
  2497  05B8  1283               	bcf	status, 5	;RP0=0, select bank0
  2498  05B9  1303               	bcf	status, 6	;RP1=0, select bank0
  2499  05BA  0DBE               	rlf	(??_main+0+0),f
  2500  05BB                     u2664:
  2501  05BB  3EFF               	addlw	-1
  2502  05BC  1D03               	skipz
  2503  05BD  2DB7               	goto	u2665
  2504  05BE  083E               	movf	0+(??_main+0+0),w
  2505  05BF  120A  118A  2007   	fcall	_led_control
              120A  118A         
  2506                           	line	330
  2507                           ;ir_main.c: 330: _delay((unsigned long)((150)*(4000000/4000.0)));
  2508  05C4  30C3               	movlw	195
  2509  05C5  1283               	bcf	status, 5	;RP0=0, select bank0
  2510  05C6  1303               	bcf	status, 6	;RP1=0, select bank0
  2511  05C7  00BF               movwf	(??_main+0+0+1),f
  2512  05C8  30CD               	movlw	205
  2513  05C9  00BE               movwf	(??_main+0+0),f
  2514  05CA                     u3827:
  2515  05CA  0BBE               	decfsz	(??_main+0+0),f
  2516  05CB  2DCA               	goto	u3827
  2517  05CC  0BBF               	decfsz	(??_main+0+0+1),f
  2518  05CD  2DCA               	goto	u3827
  2519                           
  2520                           	
  2521  05CE                     l30002747:	
  2522                           	line	324
  2523  05CE  3001               	movlw	(01h)
  2524  05CF  1283               	bcf	status, 5	;RP0=0, select bank0
  2525  05D0  1303               	bcf	status, 6	;RP1=0, select bank0
  2526  05D1  00BE               	movwf	(??_main+0+0)
  2527  05D2  083E               	movf	(??_main+0+0),w
  2528  05D3  1683               	bsf	status, 5	;RP0=1, select bank1
  2529  05D4  1303               	bcf	status, 6	;RP1=0, select bank1
  2530  05D5  07BF               	addwf	(main@i)^080h,f
  2531                           	
  2532  05D6                     l30002748:	
  2533  05D6  3002               	movlw	(02h)
  2534  05D7  023F               	subwf	(main@i)^080h,w
  2535  05D8  1C03               	skipc
  2536  05D9  2DDB               	goto	u2671
  2537  05DA  2DDC               	goto	u2670
  2538  05DB                     u2671:
  2539  05DB  2D9F               	goto	l30002744
  2540  05DC                     u2670:
  2541                           	
  2542  05DC                     l30002749:	
  2543                           	line	333
  2544                           ;ir_main.c: 331: }
  2545                           ;ir_main.c: 333: eep_wdata.format = rx_format;
  2546  05DC  0879               	movf	(_rx_format),w
  2547  05DD  1283               	bcf	status, 5	;RP0=0, select bank0
  2548  05DE  1303               	bcf	status, 6	;RP1=0, select bank0
  2549  05DF  00D0               	movwf	(_eep_wdata)
  2550                           	
  2551  05E0                     l30002750:	
  2552                           	line	335
  2553                           ;ir_main.c: 335: memcpy(&eep_wdata.data, &rcv_data, sizeof(rcv_data));
  2554  05E0  3048               	movlw	((_rcv_data))&0ffh
  2555  05E1  00A0               	movwf	(?_memcpy)
  2556  05E2  3008               	movlw	low(08h)
  2557  05E3  00A1               	movwf	0+(?_memcpy)+01h
  2558  05E4  3000               	movlw	high(08h)
  2559  05E5  00A2               	movwf	(0+(?_memcpy)+01h)+1
  2560  05E6  3051               	movlw	((_eep_wdata)+01h)&0ffh
  2561  05E7  120A  158A  23E1   	fcall	_memcpy
              120A  118A         
  2562                           	
  2563  05EC                     l30002751:	
  2564                           	line	337
  2565                           ;ir_main.c: 337: eep_offset = (key_code * 0x07);
  2566  05EC  3007               	movlw	(07h)
  2567  05ED  00F3               	movwf	(?___bmul)
  2568  05EE  1683               	bsf	status, 5	;RP0=1, select bank1
  2569  05EF  1303               	bcf	status, 6	;RP1=0, select bank1
  2570  05F0  0840               	movf	(main@key_code)^080h,w
  2571  05F1  120A  158A  2315   	fcall	___bmul
              120A  118A         
  2572  05F6  1683               	bsf	status, 5	;RP0=1, select bank1
  2573  05F7  1303               	bcf	status, 6	;RP1=0, select bank1
  2574  05F8  00BE               	movwf	(main@eep_offset)^080h
  2575                           	
  2576  05F9                     l143:	
  2577                           	line	339
  2578  05F9  1683               	bsf	status, 5	;RP0=1, select bank3
  2579  05FA  1703               	bsf	status, 6	;RP1=1, select bank3
  2580  05FB  188C               	btfsc	(3169/8)^0180h,(3169)&7
  2581  05FC  2DFE               	goto	u2681
  2582  05FD  2DFF               	goto	u2680
  2583  05FE                     u2681:
  2584  05FE  2DF9               	goto	l143
  2585  05FF                     u2680:
  2586                           	
  2587  05FF                     l30002752:	
  2588  05FF  1683               	bsf	status, 5	;RP0=1, select bank1
  2589  0600  1303               	bcf	status, 6	;RP1=0, select bank1
  2590  0601  083E               	movf	(main@eep_offset)^080h,w
  2591  0602  1283               	bcf	status, 5	;RP0=0, select bank2
  2592  0603  1703               	bsf	status, 6	;RP1=1, select bank2
  2593  0604  008D               	movwf	(269)^0100h	;volatile
  2594  0605  1283               	bcf	status, 5	;RP0=0, select bank0
  2595  0606  1303               	bcf	status, 6	;RP1=0, select bank0
  2596  0607  0850               	movf	(_eep_wdata),w
  2597  0608  1283               	bcf	status, 5	;RP0=0, select bank2
  2598  0609  1703               	bsf	status, 6	;RP1=1, select bank2
  2599  060A  008C               	movwf	(268)^0100h	;volatile
  2600                           	
  2601  060B                     l30002753:	
  2602  060B  303F               	movlw	(03Fh)
  2603  060C  1283               	bcf	status, 5	;RP0=0, select bank0
  2604  060D  1303               	bcf	status, 6	;RP1=0, select bank0
  2605  060E  00BE               	movwf	(??_main+0+0)
  2606  060F  083E               	movf	(??_main+0+0),w
  2607  0610  1683               	bsf	status, 5	;RP0=1, select bank3
  2608  0611  1703               	bsf	status, 6	;RP1=1, select bank3
  2609  0612  058C               	andwf	(396)^0180h,f	;volatile
  2610                           	
  2611  0613                     l30002754:	
  2612  0613  1283               	bcf	status, 5	;RP0=0, select bank0
  2613  0614  1303               	bcf	status, 6	;RP1=0, select bank0
  2614  0615  1003               	bcf	(24/8),(24)&7
  2615                           	
  2616  0616                     l30002755:	
  2617  0616  1F8B               	btfss	(95/8),(95)&7
  2618  0617  2E19               	goto	u2691
  2619  0618  2E1A               	goto	u2690
  2620  0619                     u2691:
  2621  0619  2E1B               	goto	l146
  2622  061A                     u2690:
  2623                           	
  2624  061A                     l30002756:	
  2625  061A  1403               	bsf	(24/8),(24)&7
  2626                           	
  2627  061B                     l146:	
  2628  061B  138B               	bcf	(95/8),(95)&7
  2629  061C  1683               	bsf	status, 5	;RP0=1, select bank3
  2630  061D  1703               	bsf	status, 6	;RP1=1, select bank3
  2631  061E  150C               	bsf	(3170/8)^0180h,(3170)&7
  2632                           	
  2633  061F                     l30002757:	
  2634  061F  3055               	movlw	(055h)
  2635  0620  008D               	movwf	(397)^0180h	;volatile
  2636  0621  30AA               	movlw	(0AAh)
  2637  0622  008D               	movwf	(397)^0180h	;volatile
  2638                           	
  2639  0623                     l30002758:	
  2640  0623  148C               	bsf	(3169/8)^0180h,(3169)&7
  2641                           	
  2642  0624                     l30002759:	
  2643  0624  110C               	bcf	(3170/8)^0180h,(3170)&7
  2644                           	
  2645  0625                     l30002760:	
  2646  0625  1283               	bcf	status, 5	;RP0=0, select bank0
  2647  0626  1303               	bcf	status, 6	;RP1=0, select bank0
  2648  0627  1C03               	btfss	(24/8),(24)&7
  2649  0628  2E2A               	goto	u2701
  2650  0629  2E2B               	goto	u2700
  2651  062A                     u2701:
  2652  062A  2E2C               	goto	l30002762
  2653  062B                     u2700:
  2654                           	
  2655  062B                     l30002761:	
  2656  062B  178B               	bsf	(95/8),(95)&7
  2657                           	
  2658  062C                     l30002762:	
  2659                           	line	341
  2660                           ;ir_main.c: 341: eep_offset++;
  2661  062C  3001               	movlw	(01h)
  2662  062D  00BE               	movwf	(??_main+0+0)
  2663  062E  083E               	movf	(??_main+0+0),w
  2664  062F  1683               	bsf	status, 5	;RP0=1, select bank1
  2665  0630  1303               	bcf	status, 6	;RP1=0, select bank1
  2666  0631  07BE               	addwf	(main@eep_offset)^080h,f
  2667                           	line	343
  2668                           ;ir_main.c: 343: for (i=0; i < 0x08; i++) {
  2669  0632  1003               	clrc
  2670  0633  3000               	movlw	0
  2671  0634  1803               	btfsc	status,0
  2672  0635  3001               	movlw	1
  2673  0636  00BF               	movwf	(main@i)^080h
  2674                           	
  2675  0637                     l154:	
  2676                           	line	346
  2677  0637  1683               	bsf	status, 5	;RP0=1, select bank3
  2678  0638  1703               	bsf	status, 6	;RP1=1, select bank3
  2679  0639  188C               	btfsc	(3169/8)^0180h,(3169)&7
  2680  063A  2E3C               	goto	u2711
  2681  063B  2E3D               	goto	u2710
  2682  063C                     u2711:
  2683  063C  2E37               	goto	l154
  2684  063D                     u2710:
  2685                           	
  2686  063D                     l30002765:	
  2687  063D  1683               	bsf	status, 5	;RP0=1, select bank1
  2688  063E  1303               	bcf	status, 6	;RP1=0, select bank1
  2689  063F  083F               	movf	(main@i)^080h,w
  2690  0640  073E               	addwf	(main@eep_offset)^080h,w
  2691  0641  1283               	bcf	status, 5	;RP0=0, select bank2
  2692  0642  1703               	bsf	status, 6	;RP1=1, select bank2
  2693  0643  008D               	movwf	(269)^0100h	;volatile
  2694                           	
  2695  0644                     l30002766:	
  2696  0644  1683               	bsf	status, 5	;RP0=1, select bank1
  2697  0645  1303               	bcf	status, 6	;RP1=0, select bank1
  2698  0646  083F               	movf	(main@i)^080h,w
  2699  0647  3E51               	addlw	(_eep_wdata)+01h&0ffh
  2700  0648  0084               	movwf	fsr0
  2701  0649  1383               	bcf	status, 7	;select IRP bank0
  2702  064A  0800               	movf	indf,w
  2703  064B  1283               	bcf	status, 5	;RP0=0, select bank2
  2704  064C  1703               	bsf	status, 6	;RP1=1, select bank2
  2705  064D  008C               	movwf	(268)^0100h	;volatile
  2706                           	
  2707  064E                     l30002767:	
  2708  064E  303F               	movlw	(03Fh)
  2709  064F  1283               	bcf	status, 5	;RP0=0, select bank0
  2710  0650  1303               	bcf	status, 6	;RP1=0, select bank0
  2711  0651  00BE               	movwf	(??_main+0+0)
  2712  0652  083E               	movf	(??_main+0+0),w
  2713  0653  1683               	bsf	status, 5	;RP0=1, select bank3
  2714  0654  1703               	bsf	status, 6	;RP1=1, select bank3
  2715  0655  058C               	andwf	(396)^0180h,f	;volatile
  2716                           	
  2717  0656                     l30002768:	
  2718  0656  1283               	bcf	status, 5	;RP0=0, select bank0
  2719  0657  1303               	bcf	status, 6	;RP1=0, select bank0
  2720  0658  1003               	bcf	(24/8),(24)&7
  2721                           	
  2722  0659                     l30002769:	
  2723  0659  1F8B               	btfss	(95/8),(95)&7
  2724  065A  2E5C               	goto	u2721
  2725  065B  2E5D               	goto	u2720
  2726  065C                     u2721:
  2727  065C  2E5E               	goto	l157
  2728  065D                     u2720:
  2729                           	
  2730  065D                     l30002770:	
  2731  065D  1403               	bsf	(24/8),(24)&7
  2732                           	
  2733  065E                     l157:	
  2734  065E  138B               	bcf	(95/8),(95)&7
  2735  065F  1683               	bsf	status, 5	;RP0=1, select bank3
  2736  0660  1703               	bsf	status, 6	;RP1=1, select bank3
  2737  0661  150C               	bsf	(3170/8)^0180h,(3170)&7
  2738                           	
  2739  0662                     l30002771:	
  2740  0662  3055               	movlw	(055h)
  2741  0663  008D               	movwf	(397)^0180h	;volatile
  2742  0664  30AA               	movlw	(0AAh)
  2743  0665  008D               	movwf	(397)^0180h	;volatile
  2744                           	
  2745  0666                     l30002772:	
  2746  0666  148C               	bsf	(3169/8)^0180h,(3169)&7
  2747                           	
  2748  0667                     l30002773:	
  2749  0667  110C               	bcf	(3170/8)^0180h,(3170)&7
  2750                           	
  2751  0668                     l30002774:	
  2752  0668  1283               	bcf	status, 5	;RP0=0, select bank0
  2753  0669  1303               	bcf	status, 6	;RP1=0, select bank0
  2754  066A  1C03               	btfss	(24/8),(24)&7
  2755  066B  2E6D               	goto	u2731
  2756  066C  2E6E               	goto	u2730
  2757  066D                     u2731:
  2758  066D  2E6F               	goto	l30002776
  2759  066E                     u2730:
  2760                           	
  2761  066E                     l30002775:	
  2762  066E  178B               	bsf	(95/8),(95)&7
  2763                           	
  2764  066F                     l30002776:	
  2765                           	line	343
  2766  066F  3001               	movlw	(01h)
  2767  0670  00BE               	movwf	(??_main+0+0)
  2768  0671  083E               	movf	(??_main+0+0),w
  2769  0672  1683               	bsf	status, 5	;RP0=1, select bank1
  2770  0673  1303               	bcf	status, 6	;RP1=0, select bank1
  2771  0674  07BF               	addwf	(main@i)^080h,f
  2772                           	
  2773  0675                     l30002777:	
  2774  0675  3008               	movlw	(08h)
  2775  0676  023F               	subwf	(main@i)^080h,w
  2776  0677  1C03               	skipc
  2777  0678  2E7A               	goto	u2741
  2778  0679  2E7B               	goto	u2740
  2779  067A                     u2741:
  2780  067A  2E37               	goto	l154
  2781  067B                     u2740:
  2782                           	
  2783  067B                     l149:	
  2784  067B  2E7B               	goto	l149
  2785                           	
  2786  067C                     l30002778:	
  2787                           	line	355
  2788                           ;ir_main.c: 350: }
  2789                           ;ir_main.c: 355: if ((PORTA & 0xC0) == 0x80) {
  2790  067C  0805               	movf	(5),w	;volatile
  2791  067D  39C0               	andlw	0C0h
  2792  067E  3A80               	xorlw	080h
  2793  067F  1D03               	skipz
  2794  0680  2E82               	goto	u2751
  2795  0681  2E83               	goto	u2750
  2796  0682                     u2751:
  2797  0682  2F3B               	goto	l30002802
  2798  0683                     u2750:
  2799                           	
  2800  0683                     l30002779:	
  2801                           	line	357
  2802                           ;ir_main.c: 357: for (i = 0; i < (0x07 * 0x04); i++) {
  2803  0683  1003               	clrc
  2804  0684  3000               	movlw	0
  2805  0685  1803               	btfsc	status,0
  2806  0686  3001               	movlw	1
  2807  0687  1683               	bsf	status, 5	;RP0=1, select bank1
  2808  0688  1303               	bcf	status, 6	;RP1=0, select bank1
  2809  0689  00BF               	movwf	(main@i)^080h
  2810                           	
  2811  068A                     l30002782:	
  2812                           	line	358
  2813                           ;ir_main.c: 358: eep_rdata[i] = ((EEADR=(i)),(EECON1&=0x3F),(RD=1),EEDATA);
  2814  068A  083F               	movf	(main@i)^080h,w
  2815  068B  1283               	bcf	status, 5	;RP0=0, select bank2
  2816  068C  1703               	bsf	status, 6	;RP1=1, select bank2
  2817  068D  008D               	movwf	(269)^0100h	;volatile
  2818                           	
  2819  068E                     l30002783:	
  2820  068E  303F               	movlw	(03Fh)
  2821  068F  1283               	bcf	status, 5	;RP0=0, select bank0
  2822  0690  1303               	bcf	status, 6	;RP1=0, select bank0
  2823  0691  00BE               	movwf	(??_main+0+0)
  2824  0692  083E               	movf	(??_main+0+0),w
  2825  0693  1683               	bsf	status, 5	;RP0=1, select bank3
  2826  0694  1703               	bsf	status, 6	;RP1=1, select bank3
  2827  0695  058C               	andwf	(396)^0180h,f	;volatile
  2828                           	
  2829  0696                     l30002784:	
  2830  0696  140C               	bsf	(3168/8)^0180h,(3168)&7
  2831                           	
  2832  0697                     l30002785:	
  2833  0697  1283               	bcf	status, 5	;RP0=0, select bank2
  2834  0698  1703               	bsf	status, 6	;RP1=1, select bank2
  2835  0699  080C               	movf	(268)^0100h,w	;volatile
  2836  069A  1283               	bcf	status, 5	;RP0=0, select bank0
  2837  069B  1303               	bcf	status, 6	;RP1=0, select bank0
  2838  069C  00BE               	movwf	(??_main+0+0)
  2839  069D  1683               	bsf	status, 5	;RP0=1, select bank1
  2840  069E  1303               	bcf	status, 6	;RP1=0, select bank1
  2841  069F  083F               	movf	(main@i)^080h,w
  2842  06A0  3EA0               	addlw	(_eep_rdata)&0ffh
  2843  06A1  0084               	movwf	fsr0
  2844  06A2  1283               	bcf	status, 5	;RP0=0, select bank0
  2845  06A3  1303               	bcf	status, 6	;RP1=0, select bank0
  2846  06A4  083E               	movf	(??_main+0+0),w
  2847  06A5  0080               	movwf	indf
  2848                           	
  2849  06A6                     l30002786:	
  2850                           	line	357
  2851  06A6  3001               	movlw	(01h)
  2852  06A7  00BE               	movwf	(??_main+0+0)
  2853  06A8  083E               	movf	(??_main+0+0),w
  2854  06A9  1683               	bsf	status, 5	;RP0=1, select bank1
  2855  06AA  1303               	bcf	status, 6	;RP1=0, select bank1
  2856  06AB  07BF               	addwf	(main@i)^080h,f
  2857                           	
  2858  06AC                     l30002787:	
  2859  06AC  301C               	movlw	(01Ch)
  2860  06AD  023F               	subwf	(main@i)^080h,w
  2861  06AE  1C03               	skipc
  2862  06AF  2EB1               	goto	u2761
  2863  06B0  2EB2               	goto	u2760
  2864  06B1                     u2761:
  2865  06B1  2E8A               	goto	l30002782
  2866  06B2                     u2760:
  2867                           	
  2868  06B2                     l30002788:	
  2869                           	line	364
  2870                           ;ir_main.c: 362: {
  2871                           ;ir_main.c: 364: key_code = key_input_check();
  2872  06B2  120A  118A  20F4   	fcall	_key_input_check
              120A  118A         
  2873  06B7  1683               	bsf	status, 5	;RP0=1, select bank1
  2874  06B8  1303               	bcf	status, 6	;RP1=0, select bank1
  2875  06B9  00C0               	movwf	(main@key_code)^080h
  2876                           	
  2877  06BA                     l30002789:	
  2878                           	line	367
  2879                           ;ir_main.c: 367: if (key_code == KEY_OFF) {
  2880  06BA  0840               	movf	(main@key_code)^080h,w
  2881  06BB  3AFF               	xorlw	0FFh
  2882  06BC  1D03               	skipz
  2883  06BD  2EBF               	goto	u2771
  2884  06BE  2EC0               	goto	u2770
  2885  06BF                     u2771:
  2886  06BF  2EC6               	goto	l30002791
  2887  06C0                     u2770:
  2888                           	
  2889  06C0                     l30002790:	
  2890                           	line	369
  2891                           ;ir_main.c: 369: cpu_sleep();
  2892  06C0  120A  158A  232E   	fcall	_cpu_sleep
              120A  118A         
  2893  06C5  2EB2               	goto	l30002788
  2894                           	
  2895  06C6                     l30002791:	
  2896                           	line	373
  2897                           ;ir_main.c: 371: else {
  2898                           ;ir_main.c: 373: if (key_code <= KEY_CODE04) {
  2899  06C6  3004               	movlw	(04h)
  2900  06C7  0240               	subwf	(main@key_code)^080h,w
  2901  06C8  1803               	skipnc
  2902  06C9  2ECB               	goto	u2781
  2903  06CA  2ECC               	goto	u2780
  2904  06CB                     u2781:
  2905  06CB  2EB2               	goto	l30002788
  2906  06CC                     u2780:
  2907                           	
  2908  06CC                     l30002792:	
  2909                           	line	375
  2910                           ;ir_main.c: 375: eep_offset = (key_code * 0x07);
  2911  06CC  3007               	movlw	(07h)
  2912  06CD  00F3               	movwf	(?___bmul)
  2913  06CE  0840               	movf	(main@key_code)^080h,w
  2914  06CF  120A  158A  2315   	fcall	___bmul
              120A  118A         
  2915  06D4  1683               	bsf	status, 5	;RP0=1, select bank1
  2916  06D5  1303               	bcf	status, 6	;RP1=0, select bank1
  2917  06D6  00BE               	movwf	(main@eep_offset)^080h
  2918                           	
  2919  06D7                     l30002793:	
  2920                           	line	378
  2921                           ;ir_main.c: 377: if ((eep_rdata[eep_offset] == 0x10) ||
  2922                           ;ir_main.c: 378: (eep_rdata[eep_offset] == 0x20)) {
  2923  06D7  083E               	movf	(main@eep_offset)^080h,w
  2924  06D8  3EA0               	addlw	(_eep_rdata)&0ffh
  2925  06D9  0084               	movwf	fsr0
  2926  06DA  1383               	bcf	status, 7	;select IRP bank1
  2927  06DB  0800               	movf	indf,w
  2928  06DC  3A10               	xorlw	010h
  2929  06DD  1903               	skipnz
  2930  06DE  2EE0               	goto	u2791
  2931  06DF  2EE1               	goto	u2790
  2932  06E0                     u2791:
  2933  06E0  2EEA               	goto	l30002795
  2934  06E1                     u2790:
  2935                           	
  2936  06E1                     l30002794:	
  2937  06E1  083E               	movf	(main@eep_offset)^080h,w
  2938  06E2  3EA0               	addlw	(_eep_rdata)&0ffh
  2939  06E3  0084               	movwf	fsr0
  2940  06E4  0800               	movf	indf,w
  2941  06E5  3A20               	xorlw	020h
  2942  06E6  1D03               	skipz
  2943  06E7  2EE9               	goto	u2801
  2944  06E8  2EEA               	goto	u2800
  2945  06E9                     u2801:
  2946  06E9  2EB2               	goto	l30002788
  2947  06EA                     u2800:
  2948                           	
  2949  06EA                     l30002795:	
  2950                           	line	380
  2951                           ;ir_main.c: 380: led_control((0x04 << key_code));
  2952  06EA  3004               	movlw	(04h)
  2953  06EB  1283               	bcf	status, 5	;RP0=0, select bank0
  2954  06EC  1303               	bcf	status, 6	;RP1=0, select bank0
  2955  06ED  00BE               	movwf	(??_main+0+0)
  2956  06EE  1683               	bsf	status, 5	;RP0=1, select bank1
  2957  06EF  1303               	bcf	status, 6	;RP1=0, select bank1
  2958  06F0  0A40               	incf	(main@key_code)^080h,w
  2959  06F1  2EF6               	goto	u2814
  2960  06F2                     u2815:
  2961  06F2  1003               	clrc
  2962  06F3  1283               	bcf	status, 5	;RP0=0, select bank0
  2963  06F4  1303               	bcf	status, 6	;RP1=0, select bank0
  2964  06F5  0DBE               	rlf	(??_main+0+0),f
  2965  06F6                     u2814:
  2966  06F6  3EFF               	addlw	-1
  2967  06F7  1D03               	skipz
  2968  06F8  2EF2               	goto	u2815
  2969  06F9  083E               	movf	0+(??_main+0+0),w
  2970  06FA  120A  118A  2007   	fcall	_led_control
              120A  118A         
  2971                           	
  2972  06FF                     l30002796:	
  2973                           	line	382
  2974                           ;ir_main.c: 382: if (eep_rdata[eep_offset] == 0x10) {
  2975  06FF  1683               	bsf	status, 5	;RP0=1, select bank1
  2976  0700  1303               	bcf	status, 6	;RP1=0, select bank1
  2977  0701  083E               	movf	(main@eep_offset)^080h,w
  2978  0702  3EA0               	addlw	(_eep_rdata)&0ffh
  2979  0703  0084               	movwf	fsr0
  2980  0704  1383               	bcf	status, 7	;select IRP bank1
  2981  0705  0800               	movf	indf,w
  2982  0706  3A10               	xorlw	010h
  2983  0707  1D03               	skipz
  2984  0708  2F0A               	goto	u2821
  2985  0709  2F0B               	goto	u2820
  2986  070A                     u2821:
  2987  070A  2F20               	goto	l30002799
  2988  070B                     u2820:
  2989                           	
  2990  070B                     l30002797:	
  2991                           	line	386
  2992                           ;ir_main.c: 386: eep_offset++;
  2993  070B  3001               	movlw	(01h)
  2994  070C  1283               	bcf	status, 5	;RP0=0, select bank0
  2995  070D  1303               	bcf	status, 6	;RP1=0, select bank0
  2996  070E  00BE               	movwf	(??_main+0+0)
  2997  070F  083E               	movf	(??_main+0+0),w
  2998  0710  1683               	bsf	status, 5	;RP0=1, select bank1
  2999  0711  1303               	bcf	status, 6	;RP1=0, select bank1
  3000  0712  07BE               	addwf	(main@eep_offset)^080h,f
  3001                           	
  3002  0713                     l30002798:	
  3003                           	line	387
  3004                           ;ir_main.c: 387: IR_NEC_format((unsigned char*)&eep_rdata[eep_offset]);
  3005  0713  083E               	movf	(main@eep_offset)^080h,w
  3006  0714  3EA0               	addlw	(_eep_rdata)&0ffh
  3007  0715  1283               	bcf	status, 5	;RP0=0, select bank0
  3008  0716  1303               	bcf	status, 6	;RP1=0, select bank0
  3009  0717  00A6               	movwf	(?_IR_NEC_format)
  3010  0718  3080               	movlw	(80h|(0x1/2))
  3011  0719  00A7               	movwf	(?_IR_NEC_format+1)
  3012  071A  120A  158A  25E9   	fcall	_IR_NEC_format
              120A  118A         
  3013  071F  2F34               	goto	l30002801
  3014                           	
  3015  0720                     l30002799:	
  3016                           	line	394
  3017                           ;ir_main.c: 390: else {
  3018                           ;ir_main.c: 394: eep_offset++;
  3019  0720  3001               	movlw	(01h)
  3020  0721  1283               	bcf	status, 5	;RP0=0, select bank0
  3021  0722  1303               	bcf	status, 6	;RP1=0, select bank0
  3022  0723  00BE               	movwf	(??_main+0+0)
  3023  0724  083E               	movf	(??_main+0+0),w
  3024  0725  1683               	bsf	status, 5	;RP0=1, select bank1
  3025  0726  1303               	bcf	status, 6	;RP1=0, select bank1
  3026  0727  07BE               	addwf	(main@eep_offset)^080h,f
  3027                           	
  3028  0728                     l30002800:	
  3029                           	line	395
  3030                           ;ir_main.c: 395: IR_KDN_format((unsigned char*)&eep_rdata[eep_offset]);
  3031  0728  083E               	movf	(main@eep_offset)^080h,w
  3032  0729  3EA0               	addlw	(_eep_rdata)&0ffh
  3033  072A  1283               	bcf	status, 5	;RP0=0, select bank0
  3034  072B  1303               	bcf	status, 6	;RP1=0, select bank0
  3035  072C  00A8               	movwf	(?_IR_KDN_format)
  3036  072D  3080               	movlw	(80h|(0x1/2))
  3037  072E  00A9               	movwf	(?_IR_KDN_format+1)
  3038  072F  120A  158A  2709   	fcall	_IR_KDN_format
              120A  118A         
  3039                           	
  3040  0734                     l30002801:	
  3041                           	line	398
  3042                           ;ir_main.c: 396: }
  3043                           ;ir_main.c: 398: led_control(0xC3);
  3044  0734  30C3               	movlw	(0C3h)
  3045  0735  120A  118A  2007   	fcall	_led_control
              120A  118A         
  3046  073A  2EB2               	goto	l30002788
  3047                           	
  3048  073B                     l30002802:	
  3049                           	line	408
  3050                           ;ir_main.c: 403: }
  3051                           ;ir_main.c: 408: if ((PORTA & 0xC0) == 0x00) {
  3052  073B  0805               	movf	(5),w	;volatile
  3053  073C  39C0               	andlw	0C0h
  3054  073D  1D03               	btfss	status,2
  3055  073E  2F40               	goto	u2831
  3056  073F  2F41               	goto	u2830
  3057  0740                     u2831:
  3058  0740  2FFD               	goto	l112
  3059  0741                     u2830:
  3060                           	
  3061  0741                     l30002803:	
  3062                           	line	410
  3063                           ;ir_main.c: 410: lcd_init();
  3064  0741  120A  118A  21D0   	fcall	_lcd_init
              120A  118A         
  3065                           	
  3066  0746                     l30002804:	
  3067                           	line	412
  3068                           ;ir_main.c: 412: memset(&pre_data, 0x00, sizeof(pre_data));
  3069  0746  3000               	movlw	low(0)
  3070  0747  1283               	bcf	status, 5	;RP0=0, select bank0
  3071  0748  1303               	bcf	status, 6	;RP1=0, select bank0
  3072  0749  00A2               	movwf	(?_memset)
  3073  074A  3000               	movlw	high(0)
  3074  074B  00A3               	movwf	((?_memset))+1
  3075  074C  3008               	movlw	low(08h)
  3076  074D  00A4               	movwf	0+(?_memset)+02h
  3077  074E  3000               	movlw	high(08h)
  3078  074F  00A5               	movwf	(0+(?_memset)+02h)+1
  3079  0750  3040               	movlw	((_pre_data))&0ffh
  3080  0751  120A  158A  239B   	fcall	_memset
              120A  118A         
  3081                           	
  3082  0756                     l30002805:	
  3083                           	line	416
  3084                           ;ir_main.c: 414: {
  3085                           ;ir_main.c: 416: ir_state = ir_recieve();
  3086  0756  120A  118A  22CC   	fcall	_ir_recieve
              120A  118A         
  3087  075B  1683               	bsf	status, 5	;RP0=1, select bank1
  3088  075C  1303               	bcf	status, 6	;RP1=0, select bank1
  3089  075D  00BD               	movwf	(main@ir_state)^080h
  3090  075E  2F82               	goto	l30002812
  3091                           	
  3092  075F                     l30002806:	
  3093                           	line	422
  3094                           ;ir_main.c: 422: motion_control(0x0A);
  3095  075F  300A               	movlw	(0Ah)
  3096  0760  120A  158A  2213   	fcall	_motion_control
              120A  118A         
  3097  0765  2F95               	goto	l30002813
  3098                           	
  3099  0766                     l30002807:	
  3100                           	line	425
  3101                           ;ir_main.c: 425: motion_control(0x05);
  3102  0766  3005               	movlw	(05h)
  3103  0767  120A  158A  2213   	fcall	_motion_control
              120A  118A         
  3104  076C  2F95               	goto	l30002813
  3105                           	
  3106  076D                     l30002808:	
  3107                           	line	428
  3108                           ;ir_main.c: 428: motion_control(0x00);
  3109  076D  3000               	movlw	(0)
  3110  076E  120A  158A  2213   	fcall	_motion_control
              120A  118A         
  3111  0773  2F95               	goto	l30002813
  3112                           	
  3113  0774                     l30002809:	
  3114                           	line	431
  3115                           ;ir_main.c: 431: motion_control(0x04);
  3116  0774  3004               	movlw	(04h)
  3117  0775  120A  158A  2213   	fcall	_motion_control
              120A  118A         
  3118  077A  2F95               	goto	l30002813
  3119                           	
  3120  077B                     l30002810:	
  3121                           	line	434
  3122                           ;ir_main.c: 434: motion_control(0x01);
  3123  077B  3001               	movlw	(01h)
  3124  077C  120A  158A  2213   	fcall	_motion_control
              120A  118A         
  3125  0781  2F95               	goto	l30002813
  3126                           	
  3127  0782                     l30002812:	
  3128                           	line	420
  3129  0782  1283               	bcf	status, 5	;RP0=0, select bank0
  3130  0783  1303               	bcf	status, 6	;RP1=0, select bank0
  3131  0784  084D               	movf	0+(_rcv_data)+05h,w
  3132  0785  3A0D               		xorlw	13^0
  3133  0786  1903               	skipnz
  3134  0787  2F6D               	goto	l30002808
  3135  0788  3A50               	xorlw	93^13
  3136  0789  1903               	skipnz
  3137  078A  2F5F               	goto	l30002806
  3138  078B  3A30               	xorlw	109^93
  3139  078C  1903               	skipnz
  3140  078D  2F66               	goto	l30002807
  3141  078E  3A90               	xorlw	253^109
  3142  078F  1903               	skipnz
  3143  0790  2F7B               	goto	l30002810
  3144  0791  3A02               	xorlw	255^253
  3145  0792  1903               	skipnz
  3146  0793  2F74               	goto	l30002809
  3147  0794  2F95               	goto	l30002813
  3148                           
  3149                           	
  3150  0795                     l30002813:	
  3151                           	line	442
  3152                           ;ir_main.c: 442: if ((memcmp(&pre_data, &rcv_data, sizeof(rcv_data))) != 0) {
  3153  0795  3048               	movlw	((_rcv_data))&0ffh
  3154  0796  1283               	bcf	status, 5	;RP0=0, select bank0
  3155  0797  1303               	bcf	status, 6	;RP1=0, select bank0
  3156  0798  00A0               	movwf	(?_memcmp)
  3157  0799  3008               	movlw	low(08h)
  3158  079A  00A1               	movwf	0+(?_memcmp)+01h
  3159  079B  3000               	movlw	high(08h)
  3160  079C  00A2               	movwf	(0+(?_memcmp)+01h)+1
  3161  079D  3040               	movlw	((_pre_data))&0ffh
  3162  079E  120A  118A  2019   	fcall	_memcmp
              120A  118A         
  3163  07A3  1383               	bcf	status, 7	;select IRP bank0
  3164  07A4  1283               	bcf	status, 5	;RP0=0, select bank0
  3165  07A5  1303               	bcf	status, 6	;RP1=0, select bank0
  3166  07A6  0821               	movf	(1+(?_memcmp)),w
  3167  07A7  0420               	iorwf	(0+(?_memcmp)),w
  3168  07A8  1903               	skipnz
  3169  07A9  2FAB               	goto	u2841
  3170  07AA  2FAC               	goto	u2840
  3171  07AB                     u2841:
  3172  07AB  2F56               	goto	l30002805
  3173  07AC                     u2840:
  3174                           	
  3175  07AC                     l30002814:	
  3176                           	line	443
  3177                           ;ir_main.c: 443: if (ir_state == 0x00) {
  3178  07AC  1683               	bsf	status, 5	;RP0=1, select bank1
  3179  07AD  1303               	bcf	status, 6	;RP1=0, select bank1
  3180  07AE  08BD               	movf	(main@ir_state)^080h,f
  3181  07AF  1D03               	skipz
  3182  07B0  2FB2               	goto	u2851
  3183  07B1  2FB3               	goto	u2850
  3184  07B2                     u2851:
  3185  07B2  2FDD               	goto	l30002821
  3186  07B3                     u2850:
  3187                           	
  3188  07B3                     l30002815:	
  3189                           	line	444
  3190                           ;ir_main.c: 444: lcd_clear();
  3191  07B3  120A  158A  23BD   	fcall	_lcd_clear
              120A  118A         
  3192                           	
  3193  07B8                     l30002816:	
  3194                           	line	445
  3195                           ;ir_main.c: 445: lcd_put_ir_format(rx_format);
  3196  07B8  0879               	movf	(_rx_format),w
  3197  07B9  120A  118A  205B   	fcall	_lcd_put_ir_format
              120A  118A         
  3198  07BE  2FD5               	goto	l30002820
  3199                           	
  3200  07BF                     l30002817:	
  3201                           	line	449
  3202                           ;ir_main.c: 449: lcd_put_ir_data(&rcv_data, 0x04);
  3203  07BF  3004               	movlw	(04h)
  3204  07C0  1283               	bcf	status, 5	;RP0=0, select bank0
  3205  07C1  1303               	bcf	status, 6	;RP1=0, select bank0
  3206  07C2  00AC               	movwf	(?_lcd_put_ir_data)
  3207  07C3  3048               	movlw	((_rcv_data))&0ffh
  3208  07C4  120A  158A  243B   	fcall	_lcd_put_ir_data
              120A  118A         
  3209  07C9  2FEE               	goto	l30002824
  3210                           	
  3211  07CA                     l30002818:	
  3212                           	line	453
  3213                           ;ir_main.c: 453: lcd_put_ir_data(&rcv_data, 0x06);
  3214  07CA  3006               	movlw	(06h)
  3215  07CB  1283               	bcf	status, 5	;RP0=0, select bank0
  3216  07CC  1303               	bcf	status, 6	;RP1=0, select bank0
  3217  07CD  00AC               	movwf	(?_lcd_put_ir_data)
  3218  07CE  3048               	movlw	((_rcv_data))&0ffh
  3219  07CF  120A  158A  243B   	fcall	_lcd_put_ir_data
              120A  118A         
  3220  07D4  2FEE               	goto	l30002824
  3221                           	
  3222  07D5                     l30002820:	
  3223                           	line	446
  3224  07D5  0879               	movf	(_rx_format),w
  3225  07D6  3A10               		xorlw	16^0
  3226  07D7  1903               	skipnz
  3227  07D8  2FBF               	goto	l30002817
  3228  07D9  3A30               	xorlw	32^16
  3229  07DA  1903               	skipnz
  3230  07DB  2FCA               	goto	l30002818
  3231  07DC  2FEE               	goto	l30002824
  3232                           
  3233                           	
  3234  07DD                     l30002821:	
  3235                           	line	458
  3236  07DD  083D               	movf	(main@ir_state)^080h,w
  3237  07DE  3A0F               	xorlw	0Fh
  3238  07DF  1D03               	skipz
  3239  07E0  2FE2               	goto	u2861
  3240  07E1  2FE3               	goto	u2860
  3241  07E2                     u2861:
  3242  07E2  2FEE               	goto	l30002824
  3243  07E3                     u2860:
  3244                           	
  3245  07E3                     l30002822:	
  3246                           	line	460
  3247                           ;ir_main.c: 460: lcd_clear();
  3248  07E3  120A  158A  23BD   	fcall	_lcd_clear
              120A  118A         
  3249                           	
  3250  07E8                     l30002823:	
  3251                           	line	461
  3252                           ;ir_main.c: 461: lcd_put_ir_format(0x30);
  3253  07E8  3030               	movlw	(030h)
  3254  07E9  120A  118A  205B   	fcall	_lcd_put_ir_format
              120A  118A         
  3255                           	
  3256  07EE                     l30002824:	
  3257                           	line	467
  3258                           ;ir_main.c: 465: }
  3259                           ;ir_main.c: 467: memcpy(&pre_data, &rcv_data, sizeof(rcv_data));
  3260  07EE  3048               	movlw	((_rcv_data))&0ffh
  3261  07EF  1283               	bcf	status, 5	;RP0=0, select bank0
  3262  07F0  1303               	bcf	status, 6	;RP1=0, select bank0
  3263  07F1  00A0               	movwf	(?_memcpy)
  3264  07F2  3008               	movlw	low(08h)
  3265  07F3  00A1               	movwf	0+(?_memcpy)+01h
  3266  07F4  3000               	movlw	high(08h)
  3267  07F5  00A2               	movwf	(0+(?_memcpy)+01h)+1
  3268  07F6  3040               	movlw	((_pre_data))&0ffh
  3269  07F7  120A  158A  23E1   	fcall	_memcpy
              120A  118A         
  3270  07FC  2F56               	goto	l30002805
  3271                           	
  3272  07FD                     l112:	
  3273                           	global	start
  3274  07FD  120A  118A  2800   	ljmp	start
  3275                           	opt stack 0
  3276                           GLOBAL	__end_of_main
  3277  0800                     	__end_of_main:
  3278                           ; =============== function _main ends ============
  3279                           
  3280                           psect	maintext
  3281                           	line	471
  3282                           	signat	_main,88
  3283                           	global	_memcmp
  3284                           psect	text225,local,class=CODE,delta=2
  3285                           global __ptext225
  3286  0019                     __ptext225:
  3287                           
  3288                           ; *************** function _memcmp *****************
  3289                           ; Defined at:
  3290                           ;		line 4 in file "../../common/memcmp.c"
  3291                           ; Parameters:    Size  Location     Type
  3292                           ;  s1              1    wreg     PTR const void 
  3293                           ;		 -> pre_data(8), 
  3294                           ;  s2              1    0[BANK0 ] PTR const void 
  3295                           ;		 -> rcv_data(8), 
  3296                           ;  n               2    1[BANK0 ] unsigned int 
  3297                           ; Auto vars:     Size  Location     Type
  3298                           ;  s1              1    2[COMMON] PTR const void 
  3299                           ;		 -> pre_data(8), 
  3300                           ; Return value:  Size  Location     Type
  3301                           ;                  2    0[BANK0 ] int 
  3302                           ; Registers used:
  3303                           ;		wreg, fsr0l, fsr0h, status,2, status,0
  3304                           ; Tracked objects:
  3305                           ;		On entry : 0/0
  3306                           ;		On exit  : 0/0
  3307                           ;		Unchanged: 0/0
  3308                           ; Data sizes:     COMMON   BANK0   BANK1   BANK3   BANK2
  3309                           ;      Locals:         3       3       0       0       0
  3310                           ;      Temp:     2
  3311                           ;      Total:    6
  3312                           ; This function calls:
  3313                           ;		Nothing
  3314                           ; This function is called by:
  3315                           ;		_main
  3316                           ; This function uses a non-reentrant model
  3317                           ; 
  3318                           psect	text225
  3319                           	file	"C:\Program Files\HI-TECH Software\PICC\9.70\sources\memcmp.c"
  3320                           	line	4
  3321                           	global	__size_of_memcmp
  3322  0042                     	__size_of_memcmp	equ	__end_of_memcmp-_memcmp
  3323                           	
  3324  0019                     _memcmp:	
  3325                           	opt stack 6
  3326                           ; Regs used in _memcmp: [wreg-fsr0h+status,2+status,0]
  3327                           ;memcmp@s1 stored from wreg
  3328  0019  00F2               	movwf	(memcmp@s1)
  3329                           	
  3330  001A                     l30002992:	
  3331  001A  2844               	goto	l30002997
  3332                           	
  3333  001B                     l30002993:	
  3334                           	line	6
  3335  001B  0820               	movf	(memcmp@s2),w
  3336  001C  0084               	movwf	fsr
  3337  001D  1383               	bcf	status, 7	;select IRP bank0
  3338  001E  0800               	movf	indf,w
  3339  001F  00F0               	movwf	(??_memcmp+0+0)
  3340  0020  0872               	movf	(memcmp@s1),w
  3341  0021  0084               	movwf	fsr0
  3342  0022  0800               	movf	indf,w
  3343  0023  0670               	xorwf	(??_memcmp+0+0),w
  3344+ 0024  1903               	skipnz
  3345+ 0025  2827               	goto	u3091
  3346+ 0026  2828               	goto	u3090
  3347+ 0027                     u3091:
  3348+ 0027  283C               	goto	l30002996
  3349+ 0028                     u3090:
  3350+                          	
  3351+ 0028                     l30002994:	
  3352+                          	line	7
  3353+ 0028  0820               	movf	(memcmp@s2),w
  3354+ 0029  0084               	movwf	fsr0
  3355+ 002A  0800               	movf	indf,w
  3356+ 002B  00F0               	movwf	(??_memcmp+0+0)
  3357+ 002C  01F1               	clrf	(??_memcmp+0+0+1)
  3358+ 002D  09F0               	comf	(??_memcmp+0+0),f
  3359+ 002E  09F1               	comf	(??_memcmp+0+1),f
  3360+ 002F  0AF0               	incf	(??_memcmp+0+0),f
  3361+ 0030  1903               	skipnz
  3362+ 0031  0AF1               	incf	(??_memcmp+0+1),f
  3363+ 0032  0872               	movf	(memcmp@s1),w
  3364+ 0033  0084               	movwf	fsr0
  3365+ 0034  0800               	movf	indf,w
  3366+ 0035  0770               	addwf	0+(??_memcmp+0+0),w
  3367+ 0036  00A0               	movwf	(?_memcmp)
  3368+ 0037  0871               	movf	1+(??_memcmp+0+0),w
  3369+ 0038  1803               	skipnc
  3370+ 0039  0A71               	incf	1+(??_memcmp+0+0),w
  3371+ 003A  00A1               	movwf	((?_memcmp))+1
  3372+ 003B  285A               	goto	l261
  3373+                          	
  3374+ 003C                     l30002996:	
  3375+                          	line	8
  3376+ 003C  3001               	movlw	(01h)
  3377+ 003D  00F0               	movwf	(??_memcmp+0+0)
  3378+ 003E  0870               	movf	(??_memcmp+0+0),w
  3379+ 003F  07F2               	addwf	(memcmp@s1),f
  3380+                          	line	9
  3381+ 0040  3001               	movlw	(01h)
  3382+ 0041  00F0               	movwf	(??_memcmp+0+0)
  3383+ 0042  0870               	movf	(??_memcmp+0+0),w
  3384+ 0043  07A0               	addwf	(memcmp@s2),f
  3385+                          	
  3386+ 0044                     l30002997:	
  3387+                          	line	5
  3388+ 0044  3001               	movlw	low(01h)
  3389+ 0045  1283               	bcf	status, 5	;RP0=0, select bank0
  3390+ 0046  1303               	bcf	status, 6	;RP1=0, select bank0
  3391+ 0047  02A1               	subwf	(memcmp@n),f
  3392+ 0048  3000               	movlw	high(01h)
  3393+ 0049  1C03               	skipc
  3394+ 004A  03A2               	decf	(memcmp@n+1),f
  3395+ 004B  02A2               	subwf	(memcmp@n+1),f
  3396+ 004C  30FF               	movlw	high(0FFFFh)
  3397+ 004D  0622               	xorwf	((memcmp@n+1))&07fh,w
  3398+ 004E  1D03               	skipz
  3399+ 004F  2852               	goto	u3105
  3400+ 0050  30FF               	movlw	low(0FFFFh)
  3401+ 0051  0621               	xorwf	((memcmp@n))&07fh,w
  3402+ 0052                     u3105:
  3403+                          
  3404+ 0052  1D03               	skipz
  3405+ 0053  2855               	goto	u3101
  3406+ 0054  2856               	goto	u3100
  3407+ 0055                     u3101:
  3408+ 0055  281B               	goto	l30002993
  3409+ 0056                     u3100:
  3410+                          	
  3411+ 0056                     l30002998:	
  3412+                          	line	11
  3413+ 0056  3000               	movlw	low(0)
  3414+ 0057  00A0               	movwf	(?_memcmp)
  3415+ 0058  3000               	movlw	high(0)
  3416+ 0059  00A1               	movwf	((?_memcmp))+1
  3417+                          	
  3418+ 005A                     l261:	
  3419+ 005A  0008               	return
  3420+                          	opt stack 0
  3421+                          GLOBAL	__end_of_memcmp
  3422+ 005B                     	__end_of_memcmp:
  3423+                          ; =============== function _memcmp ends ============
  3424+                          
  3425+                          psect	text226,local,class=CODE,delta=2
  3426+                          global __ptext226
  3427+ 0A13                     __ptext226:
  3428+                          	line	12
  3429+                          	signat	_memcmp,12410
  3430+                          	global	_motion_control
  3431+                          
  3432+                          ; *************** function _motion_control *****************
  3433+                          ; Defined at:
  3434+                          ;		line 148 in file "C:\Users\denjo\Documents\PIC\infrated_ray\ir_main.c"
  3435+                          ; Parameters:    Size  Location     Type
  3436+                          ;  motion_state    1    wreg     unsigned char 
  3437+                          ; Auto vars:     Size  Location     Type
  3438+                          ;  motion_state    1    0[COMMON] unsigned char 
  3439+                          ; Return value:  Size  Location     Type
  3440+                          ;		None               void
  3441+                          ; Registers used:
  3442+                          ;		wreg
  3443+                          ; Tracked objects:
  3444+                          ;		On entry : 0/0
  3445+                          ;		On exit  : 0/0
  3446+                          ;		Unchanged: 0/0
  3447+                          ; Data sizes:     COMMON   BANK0   BANK1   BANK3   BANK2
  3448+                          ;      Locals:         1       0       0       0       0
  3449+                          ;      Temp:     0
  3450+                          ;      Total:    1
  3451+                          ; This function calls:
  3452+                          ;		Nothing
  3453+                          ; This function is called by:
  3454+                          ;		_main
  3455+                          ; This function uses a non-reentrant model
  3456+                          ; 
  3457+                          psect	text226
  3458+                          	file	"C:\Users\denjo\Documents\PIC\infrated_ray\ir_main.c"
  3459+                          	line	148
  3460+                          	global	__size_of_motion_control
  3461+ 0006                     	__size_of_motion_control	equ	__end_of_motion_control-_motion_control
  3462+                          ;ir_main.c: 147: void motion_control(unsigned char motion_state)
  3463+                          ;ir_main.c: 148: {
  3464+                          	
  3465+ 0A13                     _motion_control:	
  3466+                          	opt stack 6
  3467+                          ; Regs used in _motion_control: [wreg]
  3468+                          ;motion_control@motion_state stored from wreg
  3469+ 0A13  00F0               	movwf	(motion_control@motion_state)
  3470+                          	
  3471+ 0A14                     l30003000:	
  3472+                          	line	149
  3473+                          ;ir_main.c: 149: PORTB = motion_state;
  3474+ 0A14  0870               	movf	(motion_control@motion_state),w
  3475+ 0A15  1283               	bcf	status, 5	;RP0=0, select bank0
  3476+ 0A16  1303               	bcf	status, 6	;RP1=0, select bank0
  3477+ 0A17  0086               	movwf	(6)	;volatile
  3478+                          	
  3479+ 0A18                     l110:	
  3480+ 0A18  0008               	return
  3481+                          	opt stack 0
  3482+                          GLOBAL	__end_of_motion_control
  3483+ 0A19                     	__end_of_motion_control:
  3484+                          ; =============== function _motion_control ends ============
  3485+                          
  3486+                          psect	text227,local,class=CODE,delta=2
  3487+                          global __ptext227
  3488+ 005B                     __ptext227:
  3489+                          	line	150
  3490+                          	signat	_motion_control,4216
  3491+                          	global	_lcd_put_ir_format
  3492+                          
  3493+                          ; *************** function _lcd_put_ir_format *****************
  3494+                          ; Defined at:
  3495+                          ;		line 241 in file "C:\Users\denjo\Documents\PIC\infrated_ray\lcd.c"
  3496+                          ; Parameters:    Size  Location     Type
  3497+                          ;  format          1    wreg     unsigned char 
  3498+                          ; Auto vars:     Size  Location     Type
  3499+                          ;  format          1   28[BANK0 ] unsigned char 
  3500+                          ;  kdn             8   10[BANK0 ] unsigned char [8]
  3501+                          ;  ukn             7   18[BANK0 ] unsigned char [7]
  3502+                          ;  nec             3   25[BANK0 ] unsigned char [3]
  3503+                          ;  i               1   29[BANK0 ] unsigned char 
  3504+                          ; Return value:  Size  Location     Type
  3505+                          ;		None               void
  3506+                          ; Registers used:
  3507+                          ;		wreg, fsr0l, fsr0h, status,2, status,0, pclath, cstack
  3508+                          ; Tracked objects:
  3509+                          ;		On entry : 0/0
  3510+                          ;		On exit  : 0/0
  3511+                          ;		Unchanged: 0/0
  3512+                          ; Data sizes:     COMMON   BANK0   BANK1   BANK3   BANK2
  3513+                          ;      Locals:         0      24       0       0       0
  3514+                          ;      Temp:     4
  3515+                          ;      Total:   24
  3516+                          ; This function calls:
  3517+                          ;		_lcd_goto_posi
  3518+                          ;		_lcd_put_char
  3519+                          ; This function is called by:
  3520+                          ;		_main
  3521+                          ; This function uses a non-reentrant model
  3522+                          ; 
  3523+                          psect	text227
  3524+                          	file	"C:\Users\denjo\Documents\PIC\infrated_ray\lcd.c"
  3525+                          	line	241
  3526+                          	global	__size_of_lcd_put_ir_format
  3527+ 0099                     	__size_of_lcd_put_ir_format	equ	__end_of_lcd_put_ir_format-_lcd_put_ir_format
  3528+                          ;lcd.c: 240: void lcd_put_ir_format(unsigned char format)
  3529+                          ;lcd.c: 241: {
  3530+                          	
  3531+ 005B                     _lcd_put_ir_format:	
  3532+                          	opt stack 6
  3533+                          ; Regs used in _lcd_put_ir_format: [wreg-fsr0h+status,2+status,0+pclath+cstack]
  3534+                          ;lcd_put_ir_format@format stored from wreg
  3535+                          	line	242
  3536+ 005B  1283               	bcf	status, 5	;RP0=0, select bank0
  3537+ 005C  1303               	bcf	status, 6	;RP1=0, select bank0
  3538+ 005D  00BC               	movwf	(lcd_put_ir_format@format)
  3539+                          	
  3540+ 005E                     l30002837:	
  3541+                          ;lcd.c: 242: unsigned char nec[3] = {0x4E, 0x45, 0x43};
  3542+ 005E  0876               	movf	(lcd_put_ir_format@F844),w
  3543+ 005F  00B9               	movwf	(lcd_put_ir_format@nec)
  3544+ 0060  0877               	movf	(lcd_put_ir_format@F844+1),w
  3545+ 0061  00BA               	movwf	(lcd_put_ir_format@nec+1)
  3546+ 0062  0878               	movf	(lcd_put_ir_format@F844+2),w
  3547+ 0063  00BB               	movwf	(lcd_put_ir_format@nec+2)
  3548+                          	
  3549+ 0064                     l30002838:	
  3550+                          	line	244
  3551+                          ;lcd.c: 243: unsigned char ukn[7] = {0x55, 0x4E, 0x4B, 0x4E,
  3552+                          ;lcd.c: 244: 0x4F, 0x57, 0x4E};
  3553+ 0064  3032               	movlw	(lcd_put_ir_format@ukn)&0ffh
  3554+ 0065  0084               	movwf	fsr0
  3555+ 0066  305F               	movlw	lcd_put_ir_format@F846&0ffh
  3556+ 0067  00A6               	movwf	(??_lcd_put_ir_format+0+0)
  3557+ 0068  0804               	movf	fsr0,w
  3558+ 0069  00A7               	movwf	(??_lcd_put_ir_format+0+0+1)
  3559+ 006A  3007               	movlw	7
  3560+ 006B  00A8               	movwf	(??_lcd_put_ir_format+0+0+2)
  3561+ 006C                     u2950:
  3562+ 006C  0826               	movf	(??_lcd_put_ir_format+0+0),w
  3563+ 006D  0084               	movwf	fsr0
  3564+ 006E  1383               	bcf	status, 7	;select IRP bank0
  3565+                          	
  3566+ 006F  0800               	movf	indf,w
  3567+ 0070  00A9               	movwf	(??_lcd_put_ir_format+0+0+3)
  3568+ 0071  0AA6               	incf	(??_lcd_put_ir_format+0+0),f
  3569+ 0072  0827               	movf	(??_lcd_put_ir_format+0+0+1),w
  3570+ 0073  0084               	movwf	fsr0
  3571+ 0074  0829               	movf	(??_lcd_put_ir_format+0+0+3),w
  3572+ 0075  0080               	movwf	indf
  3573+ 0076  0AA7               	incf	(??_lcd_put_ir_format+0+0+1),f
  3574+ 0077  0BA8               	decfsz	(??_lcd_put_ir_format+0+0+2),f
  3575+ 0078  286C               	goto	u2950
  3576+                          	
  3577+ 0079                     l30002839:	
  3578+                          	line	246
  3579+                          ;lcd.c: 245: unsigned char kdn[8] = {0x4B, 0x41, 0x44, 0x45,
  3580+                          ;lcd.c: 246: 0x4E, 0x4B, 0x59, 0x4F};
  3581+ 0079  302A               	movlw	(lcd_put_ir_format@kdn)&0ffh
  3582+ 007A  0084               	movwf	fsr0
  3583+ 007B  3057               	movlw	lcd_put_ir_format@F848&0ffh
  3584+ 007C  00A6               	movwf	(??_lcd_put_ir_format+0+0)
  3585+ 007D  0804               	movf	fsr0,w
  3586+ 007E  00A7               	movwf	(??_lcd_put_ir_format+0+0+1)
  3587+ 007F  3008               	movlw	8
  3588+ 0080  00A8               	movwf	(??_lcd_put_ir_format+0+0+2)
  3589+ 0081                     u2960:
  3590+ 0081  0826               	movf	(??_lcd_put_ir_format+0+0),w
  3591+ 0082  0084               	movwf	fsr0
  3592+ 0083  1383               	bcf	status, 7	;select IRP bank0
  3593+                          	
  3594+ 0084  0800               	movf	indf,w
  3595+ 0085  00A9               	movwf	(??_lcd_put_ir_format+0+0+3)
  3596+ 0086  0AA6               	incf	(??_lcd_put_ir_format+0+0),f
  3597+ 0087  0827               	movf	(??_lcd_put_ir_format+0+0+1),w
  3598+ 0088  0084               	movwf	fsr0
  3599+ 0089  0829               	movf	(??_lcd_put_ir_format+0+0+3),w
  3600+ 008A  0080               	movwf	indf
  3601+ 008B  0AA7               	incf	(??_lcd_put_ir_format+0+0+1),f
  3602+ 008C  0BA8               	decfsz	(??_lcd_put_ir_format+0+0+2),f
  3603+ 008D  2881               	goto	u2960
  3604+                          	
  3605+ 008E                     l30002840:	
  3606+                          	line	250
  3607+                          ;lcd.c: 247: unsigned char i;
  3608+                          ;lcd.c: 250: lcd_goto_posi(0x00);
  3609+ 008E  3000               	movlw	(0)
  3610+ 008F  120A  158A  24E7   	fcall	_lcd_goto_posi
      +       120A  118A         
  3611+ 0094  28E9               	goto	l30002860
  3612+                          	
  3613+ 0095                     l30002841:	
  3614+                          	line	255
  3615+                          ;lcd.c: 255: for (i = 0; i < 0x03; i++) {
  3616+ 0095  1003               	clrc
  3617+ 0096  3000               	movlw	0
  3618+ 0097  1803               	btfsc	status,0
  3619+ 0098  3001               	movlw	1
  3620+ 0099  00BD               	movwf	(lcd_put_ir_format@i)
  3621+                          	
  3622+ 009A                     l30002844:	
  3623+                          	line	256
  3624+                          ;lcd.c: 256: lcd_put_char(nec[i]);
  3625+ 009A  083D               	movf	(lcd_put_ir_format@i),w
  3626+ 009B  3E39               	addlw	(lcd_put_ir_format@nec)&0ffh
  3627+ 009C  0084               	movwf	fsr0
  3628+ 009D  1383               	bcf	status, 7	;select IRP bank0
  3629+ 009E  0800               	movf	indf,w
  3630+ 009F  120A  158A  24A6   	fcall	_lcd_put_char
      +       120A  118A         
  3631+                          	
  3632+ 00A4                     l30002845:	
  3633+                          	line	255
  3634+ 00A4  3001               	movlw	(01h)
  3635+ 00A5  1283               	bcf	status, 5	;RP0=0, select bank0
  3636+ 00A6  1303               	bcf	status, 6	;RP1=0, select bank0
  3637+ 00A7  00A6               	movwf	(??_lcd_put_ir_format+0+0)
  3638+ 00A8  0826               	movf	(??_lcd_put_ir_format+0+0),w
  3639+ 00A9  07BD               	addwf	(lcd_put_ir_format@i),f
  3640+                          	
  3641+ 00AA                     l30002846:	
  3642+ 00AA  3003               	movlw	(03h)
  3643+ 00AB  023D               	subwf	(lcd_put_ir_format@i),w
  3644+ 00AC  1C03               	skipc
  3645+ 00AD  28AF               	goto	u2971
  3646+ 00AE  28B0               	goto	u2970
  3647+ 00AF                     u2971:
  3648+ 00AF  289A               	goto	l30002844
  3649+ 00B0                     u2970:
  3650+ 00B0  28F3               	goto	l239
  3651+                          	
  3652+ 00B1                     l30002847:	
  3653+                          	line	261
  3654+                          ;lcd.c: 261: for (i = 0; i < 0x08; i++) {
  3655+ 00B1  1003               	clrc
  3656+ 00B2  3000               	movlw	0
  3657+ 00B3  1803               	btfsc	status,0
  3658+ 00B4  3001               	movlw	1
  3659+ 00B5  00BD               	movwf	(lcd_put_ir_format@i)
  3660+                          	
  3661+ 00B6                     l30002850:	
  3662+                          	line	262
  3663+                          ;lcd.c: 262: lcd_put_char(kdn[i]);
  3664+ 00B6  083D               	movf	(lcd_put_ir_format@i),w
  3665+ 00B7  3E2A               	addlw	(lcd_put_ir_format@kdn)&0ffh
  3666+ 00B8  0084               	movwf	fsr0
  3667+ 00B9  1383               	bcf	status, 7	;select IRP bank0
  3668+ 00BA  0800               	movf	indf,w
  3669+ 00BB  120A  158A  24A6   	fcall	_lcd_put_char
      +       120A  118A         
  3670+                          	
  3671+ 00C0                     l30002851:	
  3672+                          	line	261
  3673+ 00C0  3001               	movlw	(01h)
  3674+ 00C1  1283               	bcf	status, 5	;RP0=0, select bank0
  3675+ 00C2  1303               	bcf	status, 6	;RP1=0, select bank0
  3676+ 00C3  00A6               	movwf	(??_lcd_put_ir_format+0+0)
  3677+ 00C4  0826               	movf	(??_lcd_put_ir_format+0+0),w
  3678+ 00C5  07BD               	addwf	(lcd_put_ir_format@i),f
  3679+                          	
  3680+ 00C6                     l30002852:	
  3681+ 00C6  3008               	movlw	(08h)
  3682+ 00C7  023D               	subwf	(lcd_put_ir_format@i),w
  3683+ 00C8  1C03               	skipc
  3684+ 00C9  28CB               	goto	u2981
  3685+ 00CA  28CC               	goto	u2980
  3686+ 00CB                     u2981:
  3687+ 00CB  28B6               	goto	l30002850
  3688+ 00CC                     u2980:
  3689  00CC  28F3               	goto	l239
  3690                           	
  3691  00CD                     l30002853:	
  3692                           	line	267
  3693                           ;lcd.c: 267: for (i = 0; i < 0x07; i++) {
  3694  00CD  1003               	clrc
  3695  00CE  3000               	movlw	0
  3696  00CF  1803               	btfsc	status,0
  3697  00D0  3001               	movlw	1
  3698  00D1  00BD               	movwf	(lcd_put_ir_format@i)
  3699                           	
  3700  00D2                     l30002856:	
  3701                           	line	268
  3702                           ;lcd.c: 268: lcd_put_char(ukn[i]);
  3703  00D2  083D               	movf	(lcd_put_ir_format@i),w
  3704  00D3  3E32               	addlw	(lcd_put_ir_format@ukn)&0ffh
  3705  00D4  0084               	movwf	fsr0
  3706  00D5  1383               	bcf	status, 7	;select IRP bank0
  3707  00D6  0800               	movf	indf,w
  3708  00D7  120A  158A  24A6   	fcall	_lcd_put_char
              120A  118A         
  3709                           	
  3710  00DC                     l30002857:	
  3711                           	line	267
  3712  00DC  3001               	movlw	(01h)
  3713  00DD  1283               	bcf	status, 5	;RP0=0, select bank0
  3714  00DE  1303               	bcf	status, 6	;RP1=0, select bank0
  3715  00DF  00A6               	movwf	(??_lcd_put_ir_format+0+0)
  3716  00E0  0826               	movf	(??_lcd_put_ir_format+0+0),w
  3717  00E1  07BD               	addwf	(lcd_put_ir_format@i),f
  3718                           	
  3719  00E2                     l30002858:	
  3720  00E2  3007               	movlw	(07h)
  3721  00E3  023D               	subwf	(lcd_put_ir_format@i),w
  3722  00E4  1C03               	skipc
  3723  00E5  28E7               	goto	u2991
  3724  00E6  28E8               	goto	u2990
  3725  00E7                     u2991:
  3726  00E7  28D2               	goto	l30002856
  3727  00E8                     u2990:
  3728  00E8  28F3               	goto	l239
  3729                           	
  3730  00E9                     l30002860:	
  3731                           	line	252
  3732  00E9  1283               	bcf	status, 5	;RP0=0, select bank0
  3733  00EA  1303               	bcf	status, 6	;RP1=0, select bank0
  3734  00EB  083C               	movf	(lcd_put_ir_format@format),w
  3735  00EC  3A10               		xorlw	16^0
  3736  00ED  1903               	skipnz
  3737  00EE  2895               	goto	l30002841
  3738  00EF  3A30               	xorlw	32^16
  3739  00F0  1903               	skipnz
  3740  00F1  28B1               	goto	l30002847
  3741  00F2  28CD               	goto	l30002853
  3742                           
  3743                           	
  3744  00F3                     l239:	
  3745  00F3  0008               	return
  3746                           	opt stack 0
  3747                           GLOBAL	__end_of_lcd_put_ir_format
  3748  00F4                     	__end_of_lcd_put_ir_format:
  3749                           ; =============== function _lcd_put_ir_format ends ============
  3750                           
  3751                           psect	text228,local,class=CODE,delta=2
  3752                           global __ptext228
  3753  0BBD                     __ptext228:
  3754                           	line	274
  3755                           	signat	_lcd_put_ir_format,4216
  3756                           	global	_lcd_clear
  3757                           
  3758                           ; *************** function _lcd_clear *****************
  3759                           ; Defined at:
  3760                           ;		line 126 in file "C:\Users\denjo\Documents\PIC\infrated_ray\lcd.c"
  3761                           ; Parameters:    Size  Location     Type
  3762                           ;		None
  3763                           ; Auto vars:     Size  Location     Type
  3764                           ;		None
  3765                           ; Return value:  Size  Location     Type
  3766                           ;		None               void
  3767                           ; Registers used:
  3768                           ;		wreg, status,2, status,0, pclath, cstack
  3769                           ; Tracked objects:
  3770                           ;		On entry : 0/0
  3771                           ;		On exit  : 0/0
  3772                           ;		Unchanged: 0/0
  3773                           ; Data sizes:     COMMON   BANK0   BANK1   BANK3   BANK2
  3774                           ;      Locals:         2       0       0       0       0
  3775                           ;      Temp:     2
  3776                           ;      Total:    2
  3777                           ; This function calls:
  3778                           ;		_toggle_E
  3779                           ;		__delay
  3780                           ; This function is called by:
  3781                           ;		_main
  3782                           ; This function uses a non-reentrant model
  3783                           ; 
  3784                           psect	text228
  3785                           	file	"C:\Users\denjo\Documents\PIC\infrated_ray\lcd.c"
  3786                           	line	126
  3787                           	global	__size_of_lcd_clear
  3788  0024                     	__size_of_lcd_clear	equ	__end_of_lcd_clear-_lcd_clear
  3789                           ;lcd.c: 125: void lcd_clear(void)
  3790                           ;lcd.c: 126: {
  3791                           	
  3792  0BBD                     _lcd_clear:	
  3793                           	opt stack 6
  3794                           ; Regs used in _lcd_clear: [wreg+status,2+status,0+pclath+cstack]
  3795                           	line	127
  3796                           	
  3797  0BBD                     l30002943:	
  3798                           ;lcd.c: 127: PORTC &= 0xC3;
  3799  0BBD  30C3               	movlw	(0C3h)
  3800  0BBE  00F0               	movwf	(??_lcd_clear+0+0)
  3801  0BBF  0870               	movf	(??_lcd_clear+0+0),w
  3802  0BC0  1283               	bcf	status, 5	;RP0=0, select bank0
  3803  0BC1  1303               	bcf	status, 6	;RP1=0, select bank0
  3804  0BC2  0587               	andwf	(7),f	;volatile
  3805                           	
  3806  0BC3                     l30002944:	
  3807                           	line	128
  3808                           ;lcd.c: 128: RA4 = 0;
  3809  0BC3  1205               	bcf	(44/8),(44)&7
  3810                           	
  3811  0BC4                     l30002945:	
  3812                           	line	129
  3813                           ;lcd.c: 129: PORTC |= 0x00;
  3814  0BC4  0807               	movf	(7),w	;volatile
  3815                           	
  3816  0BC5                     l30002946:	
  3817                           	line	130
  3818                           ;lcd.c: 130: toggle_E();
  3819  0BC5  120A  158A  2219   	fcall	_toggle_E
              120A  158A         
  3820                           	
  3821  0BCA                     l30002947:	
  3822                           	line	131
  3823                           ;lcd.c: 131: PORTC &= 0xC3;
  3824  0BCA  30C3               	movlw	(0C3h)
  3825  0BCB  00F0               	movwf	(??_lcd_clear+0+0)
  3826  0BCC  0870               	movf	(??_lcd_clear+0+0),w
  3827  0BCD  1283               	bcf	status, 5	;RP0=0, select bank0
  3828  0BCE  1303               	bcf	status, 6	;RP1=0, select bank0
  3829  0BCF  0587               	andwf	(7),f	;volatile
  3830                           	
  3831  0BD0                     l30002948:	
  3832                           	line	132
  3833                           ;lcd.c: 132: RA4 = 0;
  3834  0BD0  1205               	bcf	(44/8),(44)&7
  3835                           	
  3836  0BD1                     l30002949:	
  3837                           	line	133
  3838                           ;lcd.c: 133: PORTC |= 0x04;
  3839  0BD1  1507               	bsf	(7)+(2/8),(2)&7	;volatile
  3840                           	
  3841  0BD2                     l30002950:	
  3842                           	line	135
  3843                           ;lcd.c: 135: toggle_E();
  3844  0BD2  120A  158A  2219   	fcall	_toggle_E
              120A  158A         
  3845                           	line	136
  3846                           ;lcd.c: 136: _delay((unsigned long)((2)*(4000000/4000.0)));
  3847  0BD7  3003               	movlw	3
  3848  0BD8  00F1               movwf	(??_lcd_clear+0+0+1),f
  3849  0BD9  3097               	movlw	151
  3850  0BDA  00F0               movwf	(??_lcd_clear+0+0),f
  3851  0BDB                     u3837:
  3852  0BDB  0BF0               	decfsz	(??_lcd_clear+0+0),f
  3853  0BDC  2BDB               	goto	u3837
  3854  0BDD  0BF1               	decfsz	(??_lcd_clear+0+0+1),f
  3855  0BDE  2BDB               	goto	u3837
  3856  0BDF  2BE0               	nop2
  3857                           
  3858                           	
  3859  0BE0                     l233:	
  3860  0BE0  0008               	return
  3861                           	opt stack 0
  3862                           GLOBAL	__end_of_lcd_clear
  3863  0BE1                     	__end_of_lcd_clear:
  3864                           ; =============== function _lcd_clear ends ============
  3865                           
  3866                           psect	text229,local,class=CODE,delta=2
  3867                           global __ptext229
  3868  0BE1                     __ptext229:
  3869                           	line	139
  3870                           	signat	_lcd_clear,88
  3871                           	global	_memcpy
  3872                           
  3873                           ; *************** function _memcpy *****************
  3874                           ; Defined at:
  3875                           ;		line 10 in file "C:\Program Files\HI-TECH Software\PICC\9.70\sources\memcpy.c"
  3876                           ; Parameters:    Size  Location     Type
  3877                           ;  d1              1    wreg     PTR void 
  3878                           ;		 -> eep_wdata(7), pre_data(8), 
  3879                           ;  s1              1    0[BANK0 ] PTR const void 
  3880                           ;		 -> rcv_data(8), 
  3881                           ;  n               2    1[BANK0 ] unsigned int 
  3882                           ; Auto vars:     Size  Location     Type
  3883                           ;  d1              1    1[COMMON] PTR void 
  3884                           ;		 -> eep_wdata(7), pre_data(8), 
  3885                           ;  s               1    2[COMMON] PTR const unsigned char 
  3886                           ;		 -> rcv_data(8), 
  3887                           ;  d               1    3[COMMON] PTR unsigned char 
  3888                           ;		 -> eep_wdata(7), pre_data(8), 
  3889                           ; Return value:  Size  Location     Type
  3890                           ;                  1    wreg      PTR void 
  3891                           ; Registers used:
  3892                           ;		wreg, fsr0l, fsr0h, status,2, status,0
  3893                           ; Tracked objects:
  3894                           ;		On entry : 0/0
  3895                           ;		On exit  : 0/0
  3896                           ;		Unchanged: 0/0
  3897                           ; Data sizes:     COMMON   BANK0   BANK1   BANK3   BANK2
  3898                           ;      Locals:         4       3       0       0       0
  3899                           ;      Temp:     1
  3900                           ;      Total:    7
  3901                           ; This function calls:
  3902                           ;		Nothing
  3903                           ; This function is called by:
  3904                           ;		_main
  3905                           ; This function uses a non-reentrant model
  3906                           ; 
  3907                           psect	text229
  3908                           	file	"C:\Program Files\HI-TECH Software\PICC\9.70\sources\memcpy.c"
  3909                           	line	10
  3910                           	global	__size_of_memcpy
  3911  002A                     	__size_of_memcpy	equ	__end_of_memcpy-_memcpy
  3912                           	
  3913  0BE1                     _memcpy:	
  3914                           	opt stack 6
  3915                           ; Regs used in _memcpy: [wreg-fsr0h+status,2+status,0]
  3916                           ;memcpy@d1 stored from wreg
  3917                           	line	19
  3918  0BE1  00F1               	movwf	(memcpy@d1)
  3919                           	
  3920  0BE2                     l30003001:	
  3921  0BE2  1283               	bcf	status, 5	;RP0=0, select bank0
  3922  0BE3  1303               	bcf	status, 6	;RP1=0, select bank0
  3923  0BE4  0820               	movf	(memcpy@s1),w
  3924  0BE5  00F2               	movwf	(memcpy@s)
  3925                           	line	20
  3926  0BE6  0871               	movf	(memcpy@d1),w
  3927  0BE7  00F3               	movwf	(memcpy@d)
  3928  0BE8  2BFA               	goto	l30003005
  3929                           	
  3930  0BE9                     l30003002:	
  3931                           	line	22
  3932  0BE9  0872               	movf	(memcpy@s),w
  3933  0BEA  0084               	movwf	fsr0
  3934  0BEB  1383               	bcf	status, 7	;select IRP bank0
  3935  0BEC  0800               	movf	indf,w
  3936  0BED  00F0               	movwf	(??_memcpy+0+0)
  3937  0BEE  0873               	movf	(memcpy@d),w
  3938  0BEF  0084               	movwf	fsr0
  3939  0BF0  0870               	movf	(??_memcpy+0+0),w
  3940  0BF1  0080               	movwf	indf
  3941                           	
  3942  0BF2                     l30003003:	
  3943  0BF2  3001               	movlw	(01h)
  3944  0BF3  00F0               	movwf	(??_memcpy+0+0)
  3945  0BF4  0870               	movf	(??_memcpy+0+0),w
  3946  0BF5  07F2               	addwf	(memcpy@s),f
  3947                           	
  3948  0BF6                     l30003004:	
  3949  0BF6  3001               	movlw	(01h)
  3950  0BF7  00F0               	movwf	(??_memcpy+0+0)
  3951  0BF8  0870               	movf	(??_memcpy+0+0),w
  3952  0BF9  07F3               	addwf	(memcpy@d),f
  3953                           	
  3954  0BFA                     l30003005:	
  3955                           	line	21
  3956  0BFA  3001               	movlw	low(01h)
  3957  0BFB  02A1               	subwf	(memcpy@n),f
  3958  0BFC  3000               	movlw	high(01h)
  3959  0BFD  1C03               	skipc
  3960  0BFE  03A2               	decf	(memcpy@n+1),f
  3961  0BFF  02A2               	subwf	(memcpy@n+1),f
  3962  0C00  30FF               	movlw	high(0FFFFh)
  3963  0C01  0622               	xorwf	((memcpy@n+1))&07fh,w
  3964  0C02  1D03               	skipz
  3965  0C03  2C06               	goto	u3115
  3966  0C04  30FF               	movlw	low(0FFFFh)
  3967  0C05  0621               	xorwf	((memcpy@n))&07fh,w
  3968  0C06                     u3115:
  3969                           
  3970  0C06  1D03               	skipz
  3971  0C07  2C09               	goto	u3111
  3972  0C08  2C0A               	goto	u3110
  3973  0C09                     u3111:
  3974  0C09  2BE9               	goto	l30003002
  3975  0C0A                     u3110:
  3976                           	
  3977  0C0A                     l266:	
  3978  0C0A  0008               	return
  3979                           	opt stack 0
  3980                           GLOBAL	__end_of_memcpy
  3981  0C0B                     	__end_of_memcpy:
  3982                           ; =============== function _memcpy ends ============
  3983                           
  3984                           psect	text230,local,class=CODE,delta=2
  3985                           global __ptext230
  3986  0B15                     __ptext230:
  3987                           	line	24
  3988                           	signat	_memcpy,12409
  3989                           	global	___bmul
  3990                           
  3991                           ; *************** function ___bmul *****************
  3992                           ; Defined at:
  3993                           ;		line 3 in file "C:\Program Files\HI-TECH Software\PICC\9.70\sources\bmul.c"
  3994                           ; Parameters:    Size  Location     Type
  3995                           ;  multiplier      1    wreg     unsigned char 
  3996                           ;  multiplicand    1    3[COMMON] unsigned char 
  3997                           ; Auto vars:     Size  Location     Type
  3998                           ;  multiplier      1    2[COMMON] unsigned char 
  3999                           ;  product         1    1[COMMON] unsigned char 
  4000                           ; Return value:  Size  Location     Type
  4001                           ;                  1    wreg      unsigned char 
  4002                           ; Registers used:
  4003                           ;		wreg, status,2, status,0
  4004                           ; Tracked objects:
  4005                           ;		On entry : 0/0
  4006                           ;		On exit  : 0/0
  4007                           ;		Unchanged: 0/0
  4008                           ; Data sizes:     COMMON   BANK0   BANK1   BANK3   BANK2
  4009                           ;      Locals:         4       0       0       0       0
  4010                           ;      Temp:     1
  4011                           ;      Total:    4
  4012                           ; This function calls:
  4013                           ;		Nothing
  4014                           ; This function is called by:
  4015                           ;		_main
  4016                           ; This function uses a non-reentrant model
  4017                           ; 
  4018                           psect	text230
  4019                           	file	"C:\Program Files\HI-TECH Software\PICC\9.70\sources\bmul.c"
  4020                           	line	3
  4021                           	global	__size_of___bmul
  4022  0019                     	__size_of___bmul	equ	__end_of___bmul-___bmul
  4023                           	
  4024  0B15                     ___bmul:	
  4025                           	opt stack 6
  4026                           ; Regs used in ___bmul: [wreg+status,2+status,0]
  4027                           ;___bmul@multiplier stored from wreg
  4028  0B15  00F2               	movwf	(___bmul@multiplier)
  4029                           	
  4030  0B16                     l30003006:	
  4031                           	line	4
  4032  0B16  1003               	clrc
  4033  0B17  3000               	movlw	0
  4034  0B18  1803               	btfsc	status,0
  4035  0B19  3001               	movlw	1
  4036  0B1A  00F1               	movwf	(___bmul@product)
  4037                           	
  4038  0B1B                     l30003007:	
  4039                           	line	7
  4040  0B1B  1C72               	btfss	(___bmul@multiplier),(0)&7
  4041  0B1C  2B1E               	goto	u3121
  4042  0B1D  2B1F               	goto	u3120
  4043  0B1E                     u3121:
  4044  0B1E  2B23               	goto	l30003009
  4045  0B1F                     u3120:
  4046                           	
  4047  0B1F                     l30003008:	
  4048                           	line	8
  4049  0B1F  0873               	movf	(___bmul@multiplicand),w
  4050  0B20  00F0               	movwf	(??___bmul+0+0)
  4051  0B21  0870               	movf	(??___bmul+0+0),w
  4052  0B22  07F1               	addwf	(___bmul@product),f
  4053                           	
  4054  0B23                     l30003009:	
  4055                           	line	9
  4056  0B23  1003               	clrc
  4057  0B24  0DF3               	rlf	(___bmul@multiplicand),f
  4058                           
  4059                           	
  4060  0B25                     l30003010:	
  4061                           	line	10
  4062  0B25  1003               	clrc
  4063  0B26  0CF2               	rrf	(___bmul@multiplier),f
  4064                           
  4065                           	
  4066  0B27                     l30003011:	
  4067                           	line	11
  4068  0B27  08F2               	movf	(___bmul@multiplier),f
  4069  0B28  1D03               	skipz
  4070  0B29  2B2B               	goto	u3131
  4071  0B2A  2B2C               	goto	u3130
  4072  0B2B                     u3131:
  4073  0B2B  2B1B               	goto	l30003007
  4074  0B2C                     u3130:
  4075                           	
  4076  0B2C                     l30003012:	
  4077                           	line	12
  4078  0B2C  0871               	movf	(___bmul@product),w
  4079                           	
  4080  0B2D                     l274:	
  4081  0B2D  0008               	return
  4082                           	opt stack 0
  4083                           GLOBAL	__end_of___bmul
  4084  0B2E                     	__end_of___bmul:
  4085                           ; =============== function ___bmul ends ============
  4086                           
  4087                           psect	text231,local,class=CODE,delta=2
  4088                           global __ptext231
  4089  01D0                     __ptext231:
  4090                           	line	13
  4091                           	signat	___bmul,8313
  4092                           	global	_lcd_init
  4093                           
  4094                           ; *************** function _lcd_init *****************
  4095                           ; Defined at:
  4096                           ;		line 24 in file "C:\Users\denjo\Documents\PIC\infrated_ray\lcd.c"
  4097                           ; Parameters:    Size  Location     Type
  4098                           ;		None
  4099                           ; Auto vars:     Size  Location     Type
  4100                           ;		None
  4101                           ; Return value:  Size  Location     Type
  4102                           ;		None               void
  4103                           ; Registers used:
  4104                           ;		wreg, status,2, status,0, pclath, cstack
  4105                           ; Tracked objects:
  4106                           ;		On entry : 0/0
  4107                           ;		On exit  : 0/0
  4108                           ;		Unchanged: 0/0
  4109                           ; Data sizes:     COMMON   BANK0   BANK1   BANK3   BANK2
  4110                           ;      Locals:         2       0       0       0       0
  4111                           ;      Temp:     2
  4112                           ;      Total:    2
  4113                           ; This function calls:
  4114                           ;		__delay
  4115                           ;		_toggle_E
  4116                           ; This function is called by:
  4117                           ;		_main
  4118                           ; This function uses a non-reentrant model
  4119                           ; 
  4120                           psect	text231
  4121                           	file	"C:\Users\denjo\Documents\PIC\infrated_ray\lcd.c"
  4122                           	line	24
  4123                           	global	__size_of_lcd_init
  4124  00FC                     	__size_of_lcd_init	equ	__end_of_lcd_init-_lcd_init
  4125                           ;lcd.c: 23: void lcd_init(void)
  4126                           ;lcd.c: 24: {
  4127                           	
  4128  01D0                     _lcd_init:	
  4129                           	opt stack 6
  4130                           ; Regs used in _lcd_init: [wreg+status,2+status,0+pclath+cstack]
  4131                           	line	26
  4132                           	
  4133  01D0                     l30002884:	
  4134                           ;lcd.c: 26: _delay((unsigned long)((20)*(4000000/4000.0)));
  4135  01D0  301A               	movlw	26
  4136  01D1  00F1               movwf	(??_lcd_init+0+0+1),f
  4137  01D2  30F8               	movlw	248
  4138  01D3  00F0               movwf	(??_lcd_init+0+0),f
  4139  01D4                     u3847:
  4140  01D4  0BF0               	decfsz	(??_lcd_init+0+0),f
  4141  01D5  29D4               	goto	u3847
  4142  01D6  0BF1               	decfsz	(??_lcd_init+0+0+1),f
  4143  01D7  29D4               	goto	u3847
  4144  01D8  0064               	clrwdt
  4145                           
  4146                           	
  4147  01D9                     l30002885:	
  4148                           	line	27
  4149                           ;lcd.c: 27: PORTC &= 0xC3;
  4150  01D9  30C3               	movlw	(0C3h)
  4151  01DA  00F0               	movwf	(??_lcd_init+0+0)
  4152  01DB  0870               	movf	(??_lcd_init+0+0),w
  4153  01DC  1283               	bcf	status, 5	;RP0=0, select bank0
  4154  01DD  1303               	bcf	status, 6	;RP1=0, select bank0
  4155  01DE  0587               	andwf	(7),f	;volatile
  4156                           	
  4157  01DF                     l30002886:	
  4158                           	line	28
  4159                           ;lcd.c: 28: RA4 = 0;
  4160  01DF  1205               	bcf	(44/8),(44)&7
  4161                           	
  4162  01E0                     l30002887:	
  4163                           	line	29
  4164                           ;lcd.c: 29: PORTC |= 0x0C;
  4165  01E0  300C               	movlw	(0Ch)
  4166  01E1  00F0               	movwf	(??_lcd_init+0+0)
  4167  01E2  0870               	movf	(??_lcd_init+0+0),w
  4168  01E3  0487               	iorwf	(7),f	;volatile
  4169                           	
  4170  01E4                     l30002888:	
  4171                           	line	30
  4172                           ;lcd.c: 30: toggle_E();
  4173  01E4  120A  158A  2219   	fcall	_toggle_E
              120A  118A         
  4174                           	
  4175  01E9                     l30002889:	
  4176                           	line	31
  4177                           ;lcd.c: 31: _delay((unsigned long)((5)*(4000000/4000.0)));
  4178  01E9  3007               	movlw	7
  4179  01EA  00F1               movwf	(??_lcd_init+0+0+1),f
  4180  01EB  307D               	movlw	125
  4181  01EC  00F0               movwf	(??_lcd_init+0+0),f
  4182  01ED                     u3857:
  4183  01ED  0BF0               	decfsz	(??_lcd_init+0+0),f
  4184  01EE  29ED               	goto	u3857
  4185  01EF  0BF1               	decfsz	(??_lcd_init+0+0+1),f
  4186  01F0  29ED               	goto	u3857
  4187                           
  4188                           	
  4189  01F1                     l30002890:	
  4190                           	line	34
  4191                           ;lcd.c: 34: PORTC &= 0xC3;
  4192  01F1  30C3               	movlw	(0C3h)
  4193  01F2  00F0               	movwf	(??_lcd_init+0+0)
  4194  01F3  0870               	movf	(??_lcd_init+0+0),w
  4195  01F4  1283               	bcf	status, 5	;RP0=0, select bank0
  4196  01F5  1303               	bcf	status, 6	;RP1=0, select bank0
  4197  01F6  0587               	andwf	(7),f	;volatile
  4198                           	
  4199  01F7                     l30002891:	
  4200                           	line	35
  4201                           ;lcd.c: 35: RA4 = 0;
  4202  01F7  1205               	bcf	(44/8),(44)&7
  4203                           	
  4204  01F8                     l30002892:	
  4205                           	line	36
  4206                           ;lcd.c: 36: PORTC |= 0x0C;
  4207  01F8  300C               	movlw	(0Ch)
  4208  01F9  00F0               	movwf	(??_lcd_init+0+0)
  4209  01FA  0870               	movf	(??_lcd_init+0+0),w
  4210  01FB  0487               	iorwf	(7),f	;volatile
  4211                           	line	37
  4212                           ;lcd.c: 37: toggle_E();
  4213  01FC  120A  158A  2219   	fcall	_toggle_E
              120A  118A         
  4214                           	
  4215  0201                     l30002893:	
  4216                           	line	38
  4217                           ;lcd.c: 38: _delay((unsigned long)((100)*(4000000/4000000.0)));
  4218  0201  3021               	movlw	33
  4219  0202  00F0               movwf	(??_lcd_init+0+0),f
  4220  0203                     u3867:
  4221  0203  0BF0               decfsz	(??_lcd_init+0+0),f
  4222  0204  2A03               	goto	u3867
  4223                           
  4224                           	
  4225  0205                     l30002894:	
  4226                           	line	41
  4227                           ;lcd.c: 41: PORTC &= 0xC3;
  4228  0205  30C3               	movlw	(0C3h)
  4229  0206  00F0               	movwf	(??_lcd_init+0+0)
  4230  0207  0870               	movf	(??_lcd_init+0+0),w
  4231  0208  1283               	bcf	status, 5	;RP0=0, select bank0
  4232  0209  1303               	bcf	status, 6	;RP1=0, select bank0
  4233  020A  0587               	andwf	(7),f	;volatile
  4234                           	
  4235  020B                     l30002895:	
  4236                           	line	42
  4237                           ;lcd.c: 42: RA4 = 0;
  4238  020B  1205               	bcf	(44/8),(44)&7
  4239                           	
  4240  020C                     l30002896:	
  4241                           	line	43
  4242                           ;lcd.c: 43: PORTC |= 0x0C;
  4243  020C  300C               	movlw	(0Ch)
  4244  020D  00F0               	movwf	(??_lcd_init+0+0)
  4245  020E  0870               	movf	(??_lcd_init+0+0),w
  4246  020F  0487               	iorwf	(7),f	;volatile
  4247                           	
  4248  0210                     l30002897:	
  4249                           	line	44
  4250                           ;lcd.c: 44: toggle_E();
  4251  0210  120A  158A  2219   	fcall	_toggle_E
              120A  118A         
  4252                           	line	45
  4253                           ;lcd.c: 45: _delay((unsigned long)((100)*(4000000/4000000.0)));
  4254  0215  3021               	movlw	33
  4255  0216  00F0               movwf	(??_lcd_init+0+0),f
  4256  0217                     u3877:
  4257  0217  0BF0               decfsz	(??_lcd_init+0+0),f
  4258  0218  2A17               	goto	u3877
  4259                           
  4260                           	
  4261  0219                     l30002898:	
  4262                           	line	48
  4263                           ;lcd.c: 48: PORTC &= 0xC3;
  4264  0219  30C3               	movlw	(0C3h)
  4265  021A  00F0               	movwf	(??_lcd_init+0+0)
  4266  021B  0870               	movf	(??_lcd_init+0+0),w
  4267  021C  1283               	bcf	status, 5	;RP0=0, select bank0
  4268  021D  1303               	bcf	status, 6	;RP1=0, select bank0
  4269  021E  0587               	andwf	(7),f	;volatile
  4270                           	
  4271  021F                     l30002899:	
  4272                           	line	49
  4273                           ;lcd.c: 49: RA4 = 0;
  4274  021F  1205               	bcf	(44/8),(44)&7
  4275                           	
  4276  0220                     l30002900:	
  4277                           	line	50
  4278                           ;lcd.c: 50: PORTC |= 0x08;
  4279  0220  1587               	bsf	(7)+(3/8),(3)&7	;volatile
  4280                           	
  4281  0221                     l30002901:	
  4282                           	line	51
  4283                           ;lcd.c: 51: toggle_E();
  4284  0221  120A  158A  2219   	fcall	_toggle_E
              120A  118A         
  4285                           	
  4286  0226                     l30002902:	
  4287                           	line	52
  4288                           ;lcd.c: 52: _delay((unsigned long)((100)*(4000000/4000000.0)));
  4289  0226  3021               	movlw	33
  4290  0227  00F0               movwf	(??_lcd_init+0+0),f
  4291  0228                     u3887:
  4292  0228  0BF0               decfsz	(??_lcd_init+0+0),f
  4293  0229  2A28               	goto	u3887
  4294                           
  4295                           	
  4296  022A                     l30002903:	
  4297                           	line	55
  4298                           ;lcd.c: 55: PORTC &= 0xC3;
  4299  022A  30C3               	movlw	(0C3h)
  4300  022B  00F0               	movwf	(??_lcd_init+0+0)
  4301  022C  0870               	movf	(??_lcd_init+0+0),w
  4302  022D  1283               	bcf	status, 5	;RP0=0, select bank0
  4303  022E  1303               	bcf	status, 6	;RP1=0, select bank0
  4304  022F  0587               	andwf	(7),f	;volatile
  4305                           	
  4306  0230                     l30002904:	
  4307                           	line	56
  4308                           ;lcd.c: 56: RA4 = 0;
  4309  0230  1205               	bcf	(44/8),(44)&7
  4310                           	
  4311  0231                     l30002905:	
  4312                           	line	57
  4313                           ;lcd.c: 57: PORTC |= 0x08;
  4314  0231  1587               	bsf	(7)+(3/8),(3)&7	;volatile
  4315                           	line	58
  4316                           ;lcd.c: 58: toggle_E();
  4317  0232  120A  158A  2219   	fcall	_toggle_E
              120A  118A         
  4318                           	
  4319  0237                     l30002906:	
  4320                           	line	59
  4321                           ;lcd.c: 59: PORTC &= 0xC3;
  4322  0237  30C3               	movlw	(0C3h)
  4323  0238  00F0               	movwf	(??_lcd_init+0+0)
  4324  0239  0870               	movf	(??_lcd_init+0+0),w
  4325  023A  1283               	bcf	status, 5	;RP0=0, select bank0
  4326  023B  1303               	bcf	status, 6	;RP1=0, select bank0
  4327  023C  0587               	andwf	(7),f	;volatile
  4328                           	
  4329  023D                     l30002907:	
  4330                           	line	60
  4331                           ;lcd.c: 60: RA4 = 0;
  4332  023D  1205               	bcf	(44/8),(44)&7
  4333                           	
  4334  023E                     l30002908:	
  4335                           	line	61
  4336                           ;lcd.c: 61: PORTC |= 0x20;
  4337  023E  1687               	bsf	(7)+(5/8),(5)&7	;volatile
  4338                           	
  4339  023F                     l30002909:	
  4340                           	line	63
  4341                           ;lcd.c: 63: toggle_E();
  4342  023F  120A  158A  2219   	fcall	_toggle_E
              120A  118A         
  4343                           	
  4344  0244                     l30002910:	
  4345                           	line	64
  4346                           ;lcd.c: 64: _delay((unsigned long)((100)*(4000000/4000000.0)));
  4347  0244  3021               	movlw	33
  4348  0245  00F0               movwf	(??_lcd_init+0+0),f
  4349  0246                     u3897:
  4350  0246  0BF0               decfsz	(??_lcd_init+0+0),f
  4351  0247  2A46               	goto	u3897
  4352                           
  4353                           	
  4354  0248                     l30002911:	
  4355                           	line	67
  4356                           ;lcd.c: 67: PORTC &= 0xC3;
  4357  0248  30C3               	movlw	(0C3h)
  4358  0249  00F0               	movwf	(??_lcd_init+0+0)
  4359  024A  0870               	movf	(??_lcd_init+0+0),w
  4360  024B  1283               	bcf	status, 5	;RP0=0, select bank0
  4361  024C  1303               	bcf	status, 6	;RP1=0, select bank0
  4362  024D  0587               	andwf	(7),f	;volatile
  4363                           	
  4364  024E                     l30002912:	
  4365                           	line	68
  4366                           ;lcd.c: 68: RA4 = 0;
  4367  024E  1205               	bcf	(44/8),(44)&7
  4368                           	line	69
  4369                           ;lcd.c: 69: PORTC |= 0x00;
  4370  024F  0807               	movf	(7),w	;volatile
  4371                           	
  4372  0250                     l30002913:	
  4373                           	line	70
  4374                           ;lcd.c: 70: toggle_E();
  4375  0250  120A  158A  2219   	fcall	_toggle_E
              120A  118A         
  4376                           	
  4377  0255                     l30002914:	
  4378                           	line	71
  4379                           ;lcd.c: 71: PORTC &= 0xC3;
  4380  0255  30C3               	movlw	(0C3h)
  4381  0256  00F0               	movwf	(??_lcd_init+0+0)
  4382  0257  0870               	movf	(??_lcd_init+0+0),w
  4383  0258  1283               	bcf	status, 5	;RP0=0, select bank0
  4384  0259  1303               	bcf	status, 6	;RP1=0, select bank0
  4385  025A  0587               	andwf	(7),f	;volatile
  4386                           	
  4387  025B                     l30002915:	
  4388                           	line	72
  4389                           ;lcd.c: 72: RA4 = 0;
  4390  025B  1205               	bcf	(44/8),(44)&7
  4391                           	
  4392  025C                     l30002916:	
  4393                           	line	73
  4394                           ;lcd.c: 73: PORTC |= 0x20;
  4395  025C  1687               	bsf	(7)+(5/8),(5)&7	;volatile
  4396                           	
  4397  025D                     l30002917:	
  4398                           	line	75
  4399                           ;lcd.c: 75: toggle_E();
  4400  025D  120A  158A  2219   	fcall	_toggle_E
              120A  118A         
  4401                           	
  4402  0262                     l30002918:	
  4403                           	line	76
  4404                           ;lcd.c: 76: _delay((unsigned long)((100)*(4000000/4000000.0)));
  4405  0262  3021               	movlw	33
  4406  0263  00F0               movwf	(??_lcd_init+0+0),f
  4407  0264                     u3907:
  4408  0264  0BF0               decfsz	(??_lcd_init+0+0),f
  4409  0265  2A64               	goto	u3907
  4410                           
  4411                           	line	79
  4412                           ;lcd.c: 79: PORTC &= 0xC3;
  4413  0266  30C3               	movlw	(0C3h)
  4414  0267  00F0               	movwf	(??_lcd_init+0+0)
  4415  0268  0870               	movf	(??_lcd_init+0+0),w
  4416  0269  1283               	bcf	status, 5	;RP0=0, select bank0
  4417  026A  1303               	bcf	status, 6	;RP1=0, select bank0
  4418  026B  0587               	andwf	(7),f	;volatile
  4419                           	
  4420  026C                     l30002919:	
  4421                           	line	80
  4422                           ;lcd.c: 80: RA4 = 0;
  4423  026C  1205               	bcf	(44/8),(44)&7
  4424                           	
  4425  026D                     l30002920:	
  4426                           	line	81
  4427                           ;lcd.c: 81: PORTC |= 0x00;
  4428  026D  0807               	movf	(7),w	;volatile
  4429                           	
  4430  026E                     l30002921:	
  4431                           	line	82
  4432                           ;lcd.c: 82: toggle_E();
  4433  026E  120A  158A  2219   	fcall	_toggle_E
              120A  118A         
  4434                           	
  4435  0273                     l30002922:	
  4436                           	line	83
  4437                           ;lcd.c: 83: PORTC &= 0xC3;
  4438  0273  30C3               	movlw	(0C3h)
  4439  0274  00F0               	movwf	(??_lcd_init+0+0)
  4440  0275  0870               	movf	(??_lcd_init+0+0),w
  4441  0276  1283               	bcf	status, 5	;RP0=0, select bank0
  4442  0277  1303               	bcf	status, 6	;RP1=0, select bank0
  4443  0278  0587               	andwf	(7),f	;volatile
  4444                           	
  4445  0279                     l30002923:	
  4446                           	line	84
  4447                           ;lcd.c: 84: RA4 = 0;
  4448  0279  1205               	bcf	(44/8),(44)&7
  4449                           	
  4450  027A                     l30002924:	
  4451                           	line	85
  4452                           ;lcd.c: 85: PORTC |= 0x04;
  4453  027A  1507               	bsf	(7)+(2/8),(2)&7	;volatile
  4454                           	
  4455  027B                     l30002925:	
  4456                           	line	87
  4457                           ;lcd.c: 87: toggle_E();
  4458  027B  120A  158A  2219   	fcall	_toggle_E
              120A  118A         
  4459                           	line	88
  4460                           ;lcd.c: 88: _delay((unsigned long)((2)*(4000000/4000.0)));
  4461  0280  3003               	movlw	3
  4462  0281  00F1               movwf	(??_lcd_init+0+0+1),f
  4463  0282  3097               	movlw	151
  4464  0283  00F0               movwf	(??_lcd_init+0+0),f
  4465  0284                     u3917:
  4466  0284  0BF0               	decfsz	(??_lcd_init+0+0),f
  4467  0285  2A84               	goto	u3917
  4468  0286  0BF1               	decfsz	(??_lcd_init+0+0+1),f
  4469  0287  2A84               	goto	u3917
  4470  0288  2A89               	nop2
  4471                           
  4472                           	
  4473  0289                     l30002926:	
  4474                           	line	91
  4475                           ;lcd.c: 91: PORTC &= 0xC3;
  4476  0289  30C3               	movlw	(0C3h)
  4477  028A  00F0               	movwf	(??_lcd_init+0+0)
  4478  028B  0870               	movf	(??_lcd_init+0+0),w
  4479  028C  1283               	bcf	status, 5	;RP0=0, select bank0
  4480  028D  1303               	bcf	status, 6	;RP1=0, select bank0
  4481  028E  0587               	andwf	(7),f	;volatile
  4482                           	
  4483  028F                     l30002927:	
  4484                           	line	92
  4485                           ;lcd.c: 92: RA4 = 0;
  4486  028F  1205               	bcf	(44/8),(44)&7
  4487                           	
  4488  0290                     l30002928:	
  4489                           	line	93
  4490                           ;lcd.c: 93: PORTC |= 0x00;
  4491  0290  0807               	movf	(7),w	;volatile
  4492                           	
  4493  0291                     l30002929:	
  4494                           	line	94
  4495                           ;lcd.c: 94: toggle_E();
  4496  0291  120A  158A  2219   	fcall	_toggle_E
              120A  118A         
  4497                           	
  4498  0296                     l30002930:	
  4499                           	line	95
  4500                           ;lcd.c: 95: PORTC &= 0xC3;
  4501  0296  30C3               	movlw	(0C3h)
  4502  0297  00F0               	movwf	(??_lcd_init+0+0)
  4503  0298  0870               	movf	(??_lcd_init+0+0),w
  4504  0299  1283               	bcf	status, 5	;RP0=0, select bank0
  4505  029A  1303               	bcf	status, 6	;RP1=0, select bank0
  4506  029B  0587               	andwf	(7),f	;volatile
  4507                           	
  4508  029C                     l30002931:	
  4509                           	line	96
  4510                           ;lcd.c: 96: RA4 = 0;
  4511  029C  1205               	bcf	(44/8),(44)&7
  4512                           	
  4513  029D                     l30002932:	
  4514                           	line	97
  4515                           ;lcd.c: 97: PORTC |= 0x18;
  4516  029D  3018               	movlw	(018h)
  4517  029E  00F0               	movwf	(??_lcd_init+0+0)
  4518  029F  0870               	movf	(??_lcd_init+0+0),w
  4519  02A0  0487               	iorwf	(7),f	;volatile
  4520                           	
  4521  02A1                     l30002933:	
  4522                           	line	99
  4523                           ;lcd.c: 99: toggle_E();
  4524  02A1  120A  158A  2219   	fcall	_toggle_E
              120A  118A         
  4525                           	
  4526  02A6                     l30002934:	
  4527                           	line	100
  4528                           ;lcd.c: 100: _delay((unsigned long)((100)*(4000000/4000000.0)));
  4529  02A6  3021               	movlw	33
  4530  02A7  00F0               movwf	(??_lcd_init+0+0),f
  4531  02A8                     u3927:
  4532  02A8  0BF0               decfsz	(??_lcd_init+0+0),f
  4533  02A9  2AA8               	goto	u3927
  4534                           
  4535                           	
  4536  02AA                     l30002935:	
  4537                           	line	103
  4538                           ;lcd.c: 103: PORTC &= 0xC3;
  4539  02AA  30C3               	movlw	(0C3h)
  4540  02AB  00F0               	movwf	(??_lcd_init+0+0)
  4541  02AC  0870               	movf	(??_lcd_init+0+0),w
  4542  02AD  1283               	bcf	status, 5	;RP0=0, select bank0
  4543  02AE  1303               	bcf	status, 6	;RP1=0, select bank0
  4544  02AF  0587               	andwf	(7),f	;volatile
  4545                           	
  4546  02B0                     l30002936:	
  4547                           	line	104
  4548                           ;lcd.c: 104: RA4 = 0;
  4549  02B0  1205               	bcf	(44/8),(44)&7
  4550                           	line	105
  4551                           ;lcd.c: 105: PORTC |= 0x00;
  4552  02B1  0807               	movf	(7),w	;volatile
  4553                           	
  4554  02B2                     l30002937:	
  4555                           	line	106
  4556                           ;lcd.c: 106: toggle_E();
  4557  02B2  120A  158A  2219   	fcall	_toggle_E
              120A  118A         
  4558                           	
  4559  02B7                     l30002938:	
  4560                           	line	107
  4561                           ;lcd.c: 107: PORTC &= 0xC3;
  4562  02B7  30C3               	movlw	(0C3h)
  4563  02B8  00F0               	movwf	(??_lcd_init+0+0)
  4564  02B9  0870               	movf	(??_lcd_init+0+0),w
  4565  02BA  1283               	bcf	status, 5	;RP0=0, select bank0
  4566  02BB  1303               	bcf	status, 6	;RP1=0, select bank0
  4567  02BC  0587               	andwf	(7),f	;volatile
  4568                           	
  4569  02BD                     l30002939:	
  4570                           	line	108
  4571                           ;lcd.c: 108: RA4 = 0;
  4572  02BD  1205               	bcf	(44/8),(44)&7
  4573                           	
  4574  02BE                     l30002940:	
  4575                           	line	109
  4576                           ;lcd.c: 109: PORTC |= 0x30;
  4577  02BE  3030               	movlw	(030h)
  4578  02BF  00F0               	movwf	(??_lcd_init+0+0)
  4579  02C0  0870               	movf	(??_lcd_init+0+0),w
  4580  02C1  0487               	iorwf	(7),f	;volatile
  4581                           	
  4582  02C2                     l30002941:	
  4583                           	line	111
  4584                           ;lcd.c: 111: toggle_E();
  4585  02C2  120A  158A  2219   	fcall	_toggle_E
              120A  118A         
  4586                           	line	112
  4587                           ;lcd.c: 112: _delay((unsigned long)((100)*(4000000/4000000.0)));
  4588  02C7  3021               	movlw	33
  4589  02C8  00F0               movwf	(??_lcd_init+0+0),f
  4590  02C9                     u3937:
  4591  02C9  0BF0               decfsz	(??_lcd_init+0+0),f
  4592  02CA  2AC9               	goto	u3937
  4593                           
  4594                           	
  4595  02CB                     l232:	
  4596  02CB  0008               	return
  4597                           	opt stack 0
  4598                           GLOBAL	__end_of_lcd_init
  4599  02CC                     	__end_of_lcd_init:
  4600                           ; =============== function _lcd_init ends ============
  4601                           
  4602                           psect	text232,local,class=CODE,delta=2
  4603                           global __ptext232
  4604  02CC                     __ptext232:
  4605                           	line	115
  4606                           	signat	_lcd_init,88
  4607                           	global	_ir_recieve
  4608                           
  4609                           ; *************** function _ir_recieve *****************
  4610                           ; Defined at:
  4611                           ;		line 51 in file "C:\Users\denjo\Documents\PIC\infrated_ray\ir_in.c"
  4612                           ; Parameters:    Size  Location     Type
  4613                           ;		None
  4614                           ; Auto vars:     Size  Location     Type
  4615                           ;  i               1    7[BANK0 ] unsigned char 
  4616                           ;  s_data          1    6[BANK0 ] unsigned char 
  4617                           ;  time_out        1    0        unsigned char 
  4618                           ; Return value:  Size  Location     Type
  4619                           ;                  1    wreg      unsigned char 
  4620                           ; Registers used:
  4621                           ;		wreg, fsr0l, fsr0h, status,2, status,0, pclath, cstack
  4622                           ; Tracked objects:
  4623                           ;		On entry : 0/0
  4624                           ;		On exit  : 0/0
  4625                           ;		Unchanged: 0/0
  4626                           ; Data sizes:     COMMON   BANK0   BANK1   BANK3   BANK2
  4627                           ;      Locals:         2       2       0       0       0
  4628                           ;      Temp:     2
  4629                           ;      Total:    4
  4630                           ; This function calls:
  4631                           ;		_memset
  4632                           ;		_Timer_Reset
  4633                           ; This function is called by:
  4634                           ;		_main
  4635                           ; This function uses a non-reentrant model
  4636                           ; 
  4637                           psect	text232
  4638                           	file	"C:\Users\denjo\Documents\PIC\infrated_ray\ir_in.c"
  4639                           	line	51
  4640                           	global	__size_of_ir_recieve
  4641  01C5                     	__size_of_ir_recieve	equ	__end_of_ir_recieve-_ir_recieve
  4642                           ;ir_in.c: 50: unsigned char ir_recieve(void)
  4643                           ;ir_in.c: 51: {
  4644                           	
  4645  02CC                     _ir_recieve:	
  4646                           	opt stack 6
  4647                           ; Regs used in _ir_recieve: [wreg-fsr0h+status,2+status,0+pclath+cstack]
  4648                           	line	57
  4649                           	
  4650  02CC                     l30003014:	
  4651                           ;ir_in.c: 52: unsigned char i;
  4652                           ;ir_in.c: 53: unsigned char s_data;
  4653                           ;ir_in.c: 54: unsigned char time_out;
  4654                           ;ir_in.c: 57: memset(&rcv_data, 0x00, sizeof(rcv_data));
  4655  02CC  3000               	movlw	low(0)
  4656  02CD  1283               	bcf	status, 5	;RP0=0, select bank0
  4657  02CE  1303               	bcf	status, 6	;RP1=0, select bank0
  4658  02CF  00A2               	movwf	(?_memset)
  4659  02D0  3000               	movlw	high(0)
  4660  02D1  00A3               	movwf	((?_memset))+1
  4661  02D2  3008               	movlw	low(08h)
  4662  02D3  00A4               	movwf	0+(?_memset)+02h
  4663  02D4  3000               	movlw	high(08h)
  4664  02D5  00A5               	movwf	(0+(?_memset)+02h)+1
  4665  02D6  3048               	movlw	((_rcv_data))&0ffh
  4666  02D7  120A  158A  239B   	fcall	_memset
              120A  118A         
  4667                           	
  4668  02DC                     l4:	
  4669                           	line	64
  4670  02DC  1283               	bcf	status, 5	;RP0=0, select bank0
  4671  02DD  1303               	bcf	status, 6	;RP1=0, select bank0
  4672  02DE  1807               	btfsc	(7),(0)&7	;volatile
  4673  02DF  2AE1               	goto	u3141
  4674  02E0  2AE2               	goto	u3140
  4675  02E1                     u3141:
  4676  02E1  2ADC               	goto	l4
  4677  02E2                     u3140:
  4678                           	
  4679  02E2                     l30003015:	
  4680                           	line	70
  4681                           ;ir_in.c: 70: Timer_Reset();
  4682  02E2  120A  158A  2289   	fcall	_Timer_Reset
              120A  118A         
  4683                           	
  4684  02E7                     l7:	
  4685                           	line	73
  4686  02E7  1283               	bcf	status, 5	;RP0=0, select bank0
  4687  02E8  1303               	bcf	status, 6	;RP1=0, select bank0
  4688  02E9  1C07               	btfss	(7),(0)&7	;volatile
  4689  02EA  2AEC               	goto	u3151
  4690  02EB  2AED               	goto	u3150
  4691  02EC                     u3151:
  4692  02EC  2AE7               	goto	l7
  4693  02ED                     u3150:
  4694                           	
  4695  02ED                     l30003016:	
  4696                           	line	77
  4697                           ;ir_in.c: 77: if ((TMR1H >= 0x0C) && (TMR1H <= 0x10)) {
  4698  02ED  300C               	movlw	(0Ch)
  4699  02EE  020F               	subwf	(15),w	;volatile
  4700  02EF  1C03               	skipc
  4701  02F0  2AF2               	goto	u3161
  4702  02F1  2AF3               	goto	u3160
  4703  02F2                     u3161:
  4704  02F2  2AFC               	goto	l30003019
  4705  02F3                     u3160:
  4706                           	
  4707  02F3                     l30003017:	
  4708  02F3  3011               	movlw	(011h)
  4709  02F4  020F               	subwf	(15),w	;volatile
  4710  02F5  1803               	skipnc
  4711  02F6  2AF8               	goto	u3171
  4712  02F7  2AF9               	goto	u3170
  4713  02F8                     u3171:
  4714  02F8  2AFC               	goto	l30003019
  4715  02F9                     u3170:
  4716                           	
  4717  02F9                     l30003018:	
  4718                           	line	79
  4719                           ;ir_in.c: 79: rx_format = 0x20;
  4720  02F9  3020               	movlw	(020h)
  4721  02FA  00F9               	movwf	(_rx_format)
  4722  02FB  2B15               	goto	l30003028
  4723                           	
  4724  02FC                     l30003019:	
  4725                           	line	80
  4726  02FC  301F               	movlw	(01Fh)
  4727  02FD  020F               	subwf	(15),w	;volatile
  4728  02FE  1C03               	skipc
  4729  02FF  2B01               	goto	u3181
  4730  0300  2B02               	goto	u3180
  4731  0301                     u3181:
  4732  0301  2B0B               	goto	l30003022
  4733  0302                     u3180:
  4734                           	
  4735  0302                     l30003020:	
  4736  0302  3028               	movlw	(028h)
  4737  0303  020F               	subwf	(15),w	;volatile
  4738  0304  1803               	skipnc
  4739  0305  2B07               	goto	u3191
  4740  0306  2B08               	goto	u3190
  4741  0307                     u3191:
  4742  0307  2B0B               	goto	l30003022
  4743  0308                     u3190:
  4744                           	
  4745  0308                     l30003021:	
  4746                           	line	82
  4747                           ;ir_in.c: 82: rx_format = 0x10;
  4748  0308  3010               	movlw	(010h)
  4749  0309  00F9               	movwf	(_rx_format)
  4750  030A  2B15               	goto	l30003028
  4751                           	
  4752  030B                     l30003022:	
  4753                           	line	83
  4754  030B  3004               	movlw	(04h)
  4755  030C  020F               	subwf	(15),w	;volatile
  4756  030D  1C03               	skipc
  4757  030E  2B10               	goto	u3201
  4758  030F  2B11               	goto	u3200
  4759  0310                     u3201:
  4760  0310  2B13               	goto	l30003026
  4761  0311                     u3200:
  4762                           	
  4763  0311                     l30003023:	
  4764                           	line	86
  4765                           ;ir_in.c: 86: return 0x0F;
  4766  0311  300F               	movlw	(0Fh)
  4767  0312  2C90               	goto	l3
  4768                           	
  4769  0313                     l30003026:	
  4770                           	line	89
  4771                           ;ir_in.c: 89: return 0xFF;
  4772  0313  30FF               	movlw	(0FFh)
  4773  0314  2C90               	goto	l3
  4774                           	
  4775  0315                     l30003028:	
  4776                           	line	93
  4777                           ;ir_in.c: 90: }
  4778                           ;ir_in.c: 93: Timer_Reset();
  4779  0315  120A  158A  2289   	fcall	_Timer_Reset
              120A  118A         
  4780                           	
  4781  031A                     l16:	
  4782                           	line	94
  4783  031A  1283               	bcf	status, 5	;RP0=0, select bank0
  4784  031B  1303               	bcf	status, 6	;RP1=0, select bank0
  4785  031C  1807               	btfsc	(7),(0)&7	;volatile
  4786  031D  2B1F               	goto	u3211
  4787  031E  2B20               	goto	u3210
  4788  031F                     u3211:
  4789  031F  2B1A               	goto	l16
  4790  0320                     u3210:
  4791                           	
  4792  0320                     l30003029:	
  4793                           	line	95
  4794                           ;ir_in.c: 95: if ((rx_format == 0x10) && (TMR1H <=0x0F)) {
  4795  0320  0879               	movf	(_rx_format),w
  4796  0321  3A10               	xorlw	010h
  4797  0322  1D03               	skipz
  4798  0323  2B25               	goto	u3221
  4799  0324  2B26               	goto	u3220
  4800  0325                     u3221:
  4801  0325  2B2D               	goto	l30003033
  4802  0326                     u3220:
  4803                           	
  4804  0326                     l30003030:	
  4805  0326  3010               	movlw	(010h)
  4806  0327  020F               	subwf	(15),w	;volatile
  4807  0328  1803               	skipnc
  4808  0329  2B2B               	goto	u3231
  4809  032A  2B2C               	goto	u3230
  4810  032B                     u3231:
  4811  032B  2B2D               	goto	l30003033
  4812  032C                     u3230:
  4813  032C  2B13               	goto	l30003026
  4814                           	
  4815  032D                     l30003033:	
  4816                           	line	102
  4817                           ;ir_in.c: 97: }
  4818                           ;ir_in.c: 102: s_data = 0x01;
  4819  032D  01A6               	clrf	(ir_recieve@s_data)
  4820  032E  1403               	bsf	status,0
  4821  032F  0DA6               	rlf	(ir_recieve@s_data),f
  4822                           	
  4823  0330                     l30003034:	
  4824                           	line	105
  4825                           ;ir_in.c: 105: if (rx_format == 0x10) {
  4826  0330  0879               	movf	(_rx_format),w
  4827  0331  3A10               	xorlw	010h
  4828  0332  1D03               	skipz
  4829  0333  2B35               	goto	u3241
  4830  0334  2B36               	goto	u3240
  4831  0335                     u3241:
  4832  0335  2BBA               	goto	l30003049
  4833  0336                     u3240:
  4834                           	
  4835  0336                     l30003035:	
  4836                           	line	107
  4837                           ;ir_in.c: 107: for (i = 0; i < 32; i++) {
  4838  0336  1003               	clrc
  4839  0337  3000               	movlw	0
  4840  0338  1803               	btfsc	status,0
  4841  0339  3001               	movlw	1
  4842  033A  00A7               	movwf	(ir_recieve@i)
  4843                           	
  4844  033B                     l24:	
  4845                           	line	110
  4846  033B  1C07               	btfss	(7),(0)&7	;volatile
  4847  033C  2B3E               	goto	u3251
  4848  033D  2B3F               	goto	u3250
  4849  033E                     u3251:
  4850  033E  2B3B               	goto	l24
  4851  033F                     u3250:
  4852                           	
  4853  033F                     l30003038:	
  4854                           	line	113
  4855                           ;ir_in.c: 113: Timer_Reset();
  4856  033F  120A  158A  2289   	fcall	_Timer_Reset
              120A  118A         
  4857                           	
  4858  0344                     l27:	
  4859                           	line	114
  4860  0344  1283               	bcf	status, 5	;RP0=0, select bank0
  4861  0345  1303               	bcf	status, 6	;RP1=0, select bank0
  4862  0346  1807               	btfsc	(7),(0)&7	;volatile
  4863  0347  2B49               	goto	u3261
  4864  0348  2B4A               	goto	u3260
  4865  0349                     u3261:
  4866  0349  2B44               	goto	l27
  4867  034A                     u3260:
  4868                           	
  4869  034A                     l30003039:	
  4870                           	line	117
  4871                           ;ir_in.c: 117: if (TMR1H >= 0x04) {
  4872  034A  3004               	movlw	(04h)
  4873  034B  020F               	subwf	(15),w	;volatile
  4874  034C  1C03               	skipc
  4875  034D  2B4F               	goto	u3271
  4876  034E  2B50               	goto	u3270
  4877  034F                     u3271:
  4878  034F  2BAF               	goto	l30003047
  4879  0350                     u3270:
  4880                           	
  4881  0350                     l30003040:	
  4882                           	line	119
  4883                           ;ir_in.c: 119: if (i<8) {
  4884  0350  3008               	movlw	(08h)
  4885  0351  0227               	subwf	(ir_recieve@i),w
  4886  0352  1803               	skipnc
  4887  0353  2B55               	goto	u3281
  4888  0354  2B56               	goto	u3280
  4889  0355                     u3281:
  4890  0355  2B68               	goto	l30003042
  4891  0356                     u3280:
  4892                           	
  4893  0356                     l30003041:	
  4894                           	line	120
  4895                           ;ir_in.c: 120: rcv_data[0] |= ((s_data & 0x01) << (7 - i));
  4896  0356  0826               	movf	(ir_recieve@s_data),w
  4897  0357  3901               	andlw	01h
  4898  0358  00F1               	movwf	(??_ir_recieve+0+0)
  4899  0359  0327               	decf	(ir_recieve@i),w
  4900  035A  3AFF               	xorlw	0ffh
  4901  035B  3E07               	addlw	07h
  4902  035C  3E01               	addlw	1
  4903  035D  2B60               	goto	u3294
  4904  035E                     u3295:
  4905  035E  1003               	clrc
  4906  035F  0DF1               	rlf	(??_ir_recieve+0+0),f
  4907  0360                     u3294:
  4908  0360  3EFF               	addlw	-1
  4909  0361  1D03               	skipz
  4910  0362  2B5E               	goto	u3295
  4911  0363  0871               	movf	0+(??_ir_recieve+0+0),w
  4912  0364  00F2               	movwf	(??_ir_recieve+1+0)
  4913  0365  0872               	movf	(??_ir_recieve+1+0),w
  4914  0366  04C8               	iorwf	(_rcv_data),f
  4915  0367  2BAF               	goto	l30003047
  4916                           	
  4917  0368                     l30003042:	
  4918                           	line	123
  4919                           ;ir_in.c: 123: else if (i<16) {
  4920  0368  3010               	movlw	(010h)
  4921  0369  0227               	subwf	(ir_recieve@i),w
  4922  036A  1803               	skipnc
  4923  036B  2B6D               	goto	u3301
  4924  036C  2B6E               	goto	u3300
  4925  036D                     u3301:
  4926  036D  2B82               	goto	l30003044
  4927  036E                     u3300:
  4928                           	
  4929  036E                     l30003043:	
  4930                           	line	124
  4931                           ;ir_in.c: 124: rcv_data[1] |= ((s_data & 0x01) << (7 - (i-8)));
  4932  036E  0826               	movf	(ir_recieve@s_data),w
  4933  036F  3901               	andlw	01h
  4934  0370  00F1               	movwf	(??_ir_recieve+0+0)
  4935  0371  0827               	movf	(ir_recieve@i),w
  4936  0372  3EF8               	addlw	-8
  4937  0373  3AFF               	xorlw	0ffh
  4938  0374  3E01               	addlw	1
  4939  0375  3E07               	addlw	07h
  4940  0376  3E01               	addlw	1
  4941  0377  2B7A               	goto	u3314
  4942  0378                     u3315:
  4943  0378  1003               	clrc
  4944  0379  0DF1               	rlf	(??_ir_recieve+0+0),f
  4945  037A                     u3314:
  4946  037A  3EFF               	addlw	-1
  4947  037B  1D03               	skipz
  4948  037C  2B78               	goto	u3315
  4949  037D  0871               	movf	0+(??_ir_recieve+0+0),w
  4950  037E  00F2               	movwf	(??_ir_recieve+1+0)
  4951  037F  0872               	movf	(??_ir_recieve+1+0),w
  4952  0380  04C9               	iorwf	0+(_rcv_data)+01h,f
  4953  0381  2BAF               	goto	l30003047
  4954                           	
  4955  0382                     l30003044:	
  4956                           	line	127
  4957                           ;ir_in.c: 127: else if (i<24) {
  4958  0382  3018               	movlw	(018h)
  4959  0383  0227               	subwf	(ir_recieve@i),w
  4960  0384  1803               	skipnc
  4961  0385  2B87               	goto	u3321
  4962  0386  2B88               	goto	u3320
  4963  0387                     u3321:
  4964  0387  2B9C               	goto	l30003046
  4965  0388                     u3320:
  4966                           	
  4967  0388                     l30003045:	
  4968                           	line	128
  4969                           ;ir_in.c: 128: rcv_data[2] |= ((s_data & 0x01) << (7 - (i-16)));
  4970  0388  0826               	movf	(ir_recieve@s_data),w
  4971  0389  3901               	andlw	01h
  4972  038A  00F1               	movwf	(??_ir_recieve+0+0)
  4973  038B  0827               	movf	(ir_recieve@i),w
  4974  038C  3EF0               	addlw	-16
  4975  038D  3AFF               	xorlw	0ffh
  4976  038E  3E01               	addlw	1
  4977  038F  3E07               	addlw	07h
  4978  0390  3E01               	addlw	1
  4979  0391  2B94               	goto	u3334
  4980  0392                     u3335:
  4981  0392  1003               	clrc
  4982  0393  0DF1               	rlf	(??_ir_recieve+0+0),f
  4983  0394                     u3334:
  4984  0394  3EFF               	addlw	-1
  4985  0395  1D03               	skipz
  4986  0396  2B92               	goto	u3335
  4987  0397  0871               	movf	0+(??_ir_recieve+0+0),w
  4988  0398  00F2               	movwf	(??_ir_recieve+1+0)
  4989  0399  0872               	movf	(??_ir_recieve+1+0),w
  4990  039A  04CA               	iorwf	0+(_rcv_data)+02h,f
  4991  039B  2BAF               	goto	l30003047
  4992                           	
  4993  039C                     l30003046:	
  4994                           	line	132
  4995                           ;ir_in.c: 131: else {
  4996                           ;ir_in.c: 132: rcv_data[3] |= ((s_data & 0x01) << (7 - (i-24)));
  4997  039C  0826               	movf	(ir_recieve@s_data),w
  4998  039D  3901               	andlw	01h
  4999  039E  00F1               	movwf	(??_ir_recieve+0+0)
  5000  039F  0827               	movf	(ir_recieve@i),w
  5001  03A0  3EE8               	addlw	-24
  5002  03A1  3AFF               	xorlw	0ffh
  5003  03A2  3E01               	addlw	1
  5004  03A3  3E07               	addlw	07h
  5005  03A4  3E01               	addlw	1
  5006  03A5  2BA8               	goto	u3344
  5007  03A6                     u3345:
  5008  03A6  1003               	clrc
  5009  03A7  0DF1               	rlf	(??_ir_recieve+0+0),f
  5010  03A8                     u3344:
  5011  03A8  3EFF               	addlw	-1
  5012  03A9  1D03               	skipz
  5013  03AA  2BA6               	goto	u3345
  5014  03AB  0871               	movf	0+(??_ir_recieve+0+0),w
  5015  03AC  00F2               	movwf	(??_ir_recieve+1+0)
  5016  03AD  0872               	movf	(??_ir_recieve+1+0),w
  5017  03AE  04CB               	iorwf	0+(_rcv_data)+03h,f
  5018                           	
  5019  03AF                     l30003047:	
  5020                           	line	107
  5021  03AF  3001               	movlw	(01h)
  5022  03B0  00F1               	movwf	(??_ir_recieve+0+0)
  5023  03B1  0871               	movf	(??_ir_recieve+0+0),w
  5024  03B2  07A7               	addwf	(ir_recieve@i),f
  5025                           	
  5026  03B3                     l30003048:	
  5027  03B3  3020               	movlw	(020h)
  5028  03B4  0227               	subwf	(ir_recieve@i),w
  5029  03B5  1C03               	skipc
  5030  03B6  2BB8               	goto	u3351
  5031  03B7  2BB9               	goto	u3350
  5032  03B8                     u3351:
  5033  03B8  2B3B               	goto	l24
  5034  03B9                     u3350:
  5035  03B9  2C77               	goto	l61
  5036                           	
  5037  03BA                     l30003049:	
  5038                           	line	140
  5039                           ;ir_in.c: 140: else if (rx_format == 0x20) {
  5040  03BA  0879               	movf	(_rx_format),w
  5041  03BB  3A20               	xorlw	020h
  5042  03BC  1D03               	skipz
  5043  03BD  2BBF               	goto	u3361
  5044  03BE  2BC0               	goto	u3360
  5045  03BF                     u3361:
  5046  03BF  2C77               	goto	l61
  5047  03C0                     u3360:
  5048                           	
  5049  03C0                     l30003050:	
  5050                           	line	142
  5051                           ;ir_in.c: 142: for (i = 0; i < 48; i++) {
  5052  03C0  1003               	clrc
  5053  03C1  3000               	movlw	0
  5054  03C2  1803               	btfsc	status,0
  5055  03C3  3001               	movlw	1
  5056  03C4  00A7               	movwf	(ir_recieve@i)
  5057                           	
  5058  03C5                     l43:	
  5059                           	line	145
  5060  03C5  1C07               	btfss	(7),(0)&7	;volatile
  5061  03C6  2BC8               	goto	u3371
  5062  03C7  2BC9               	goto	u3370
  5063  03C8                     u3371:
  5064  03C8  2BC5               	goto	l43
  5065  03C9                     u3370:
  5066                           	
  5067  03C9                     l30003053:	
  5068                           	line	148
  5069                           ;ir_in.c: 148: Timer_Reset();
  5070  03C9  120A  158A  2289   	fcall	_Timer_Reset
              120A  118A         
  5071                           	
  5072  03CE                     l46:	
  5073                           	line	149
  5074  03CE  1283               	bcf	status, 5	;RP0=0, select bank0
  5075  03CF  1303               	bcf	status, 6	;RP1=0, select bank0
  5076  03D0  1807               	btfsc	(7),(0)&7	;volatile
  5077  03D1  2BD3               	goto	u3381
  5078  03D2  2BD4               	goto	u3380
  5079  03D3                     u3381:
  5080  03D3  2BCE               	goto	l46
  5081  03D4                     u3380:
  5082                           	
  5083  03D4                     l30003054:	
  5084                           	line	152
  5085                           ;ir_in.c: 152: if (TMR1H >= 0x03) {
  5086  03D4  3003               	movlw	(03h)
  5087  03D5  020F               	subwf	(15),w	;volatile
  5088  03D6  1C03               	skipc
  5089  03D7  2BD9               	goto	u3391
  5090  03D8  2BDA               	goto	u3390
  5091  03D9                     u3391:
  5092  03D9  2C6D               	goto	l30003066
  5093  03DA                     u3390:
  5094                           	
  5095  03DA                     l30003055:	
  5096                           	line	154
  5097                           ;ir_in.c: 154: if (i<8) {
  5098  03DA  3008               	movlw	(08h)
  5099  03DB  0227               	subwf	(ir_recieve@i),w
  5100  03DC  1803               	skipnc
  5101  03DD  2BDF               	goto	u3401
  5102  03DE  2BE0               	goto	u3400
  5103  03DF                     u3401:
  5104  03DF  2BF2               	goto	l30003057
  5105  03E0                     u3400:
  5106                           	
  5107  03E0                     l30003056:	
  5108                           	line	155
  5109                           ;ir_in.c: 155: rcv_data[0] |= ((s_data & 0x01) << (7 - i));
  5110  03E0  0826               	movf	(ir_recieve@s_data),w
  5111  03E1  3901               	andlw	01h
  5112  03E2  00F1               	movwf	(??_ir_recieve+0+0)
  5113  03E3  0327               	decf	(ir_recieve@i),w
  5114  03E4  3AFF               	xorlw	0ffh
  5115  03E5  3E07               	addlw	07h
  5116  03E6  3E01               	addlw	1
  5117  03E7  2BEA               	goto	u3414
  5118  03E8                     u3415:
  5119  03E8  1003               	clrc
  5120  03E9  0DF1               	rlf	(??_ir_recieve+0+0),f
  5121  03EA                     u3414:
  5122  03EA  3EFF               	addlw	-1
  5123  03EB  1D03               	skipz
  5124  03EC  2BE8               	goto	u3415
  5125  03ED  0871               	movf	0+(??_ir_recieve+0+0),w
  5126  03EE  00F2               	movwf	(??_ir_recieve+1+0)
  5127  03EF  0872               	movf	(??_ir_recieve+1+0),w
  5128  03F0  04C8               	iorwf	(_rcv_data),f
  5129  03F1  2C6D               	goto	l30003066
  5130                           	
  5131  03F2                     l30003057:	
  5132                           	line	158
  5133                           ;ir_in.c: 158: else if (i<16) {
  5134  03F2  3010               	movlw	(010h)
  5135  03F3  0227               	subwf	(ir_recieve@i),w
  5136  03F4  1803               	skipnc
  5137  03F5  2BF7               	goto	u3421
  5138  03F6  2BF8               	goto	u3420
  5139  03F7                     u3421:
  5140  03F7  2C0C               	goto	l30003059
  5141  03F8                     u3420:
  5142                           	
  5143  03F8                     l30003058:	
  5144                           	line	159
  5145                           ;ir_in.c: 159: rcv_data[1] |= ((s_data & 0x01) << (7 - (i-8)));
  5146  03F8  0826               	movf	(ir_recieve@s_data),w
  5147  03F9  3901               	andlw	01h
  5148  03FA  00F1               	movwf	(??_ir_recieve+0+0)
  5149  03FB  0827               	movf	(ir_recieve@i),w
  5150  03FC  3EF8               	addlw	-8
  5151  03FD  3AFF               	xorlw	0ffh
  5152  03FE  3E01               	addlw	1
  5153  03FF  3E07               	addlw	07h
  5154  0400  3E01               	addlw	1
  5155  0401  2C04               	goto	u3434
  5156  0402                     u3435:
  5157  0402  1003               	clrc
  5158  0403  0DF1               	rlf	(??_ir_recieve+0+0),f
  5159  0404                     u3434:
  5160  0404  3EFF               	addlw	-1
  5161  0405  1D03               	skipz
  5162  0406  2C02               	goto	u3435
  5163  0407  0871               	movf	0+(??_ir_recieve+0+0),w
  5164  0408  00F2               	movwf	(??_ir_recieve+1+0)
  5165  0409  0872               	movf	(??_ir_recieve+1+0),w
  5166  040A  04C9               	iorwf	0+(_rcv_data)+01h,f
  5167  040B  2C6D               	goto	l30003066
  5168                           	
  5169  040C                     l30003059:	
  5170                           	line	162
  5171                           ;ir_in.c: 162: else if (i<24) {
  5172  040C  3018               	movlw	(018h)
  5173  040D  0227               	subwf	(ir_recieve@i),w
  5174  040E  1803               	skipnc
  5175  040F  2C11               	goto	u3441
  5176  0410  2C12               	goto	u3440
  5177  0411                     u3441:
  5178  0411  2C26               	goto	l30003061
  5179  0412                     u3440:
  5180                           	
  5181  0412                     l30003060:	
  5182                           	line	163
  5183                           ;ir_in.c: 163: rcv_data[2] |= ((s_data & 0x01) << (7 - (i-16)));
  5184  0412  0826               	movf	(ir_recieve@s_data),w
  5185  0413  3901               	andlw	01h
  5186  0414  00F1               	movwf	(??_ir_recieve+0+0)
  5187  0415  0827               	movf	(ir_recieve@i),w
  5188  0416  3EF0               	addlw	-16
  5189  0417  3AFF               	xorlw	0ffh
  5190  0418  3E01               	addlw	1
  5191  0419  3E07               	addlw	07h
  5192  041A  3E01               	addlw	1
  5193  041B  2C1E               	goto	u3454
  5194  041C                     u3455:
  5195  041C  1003               	clrc
  5196  041D  0DF1               	rlf	(??_ir_recieve+0+0),f
  5197  041E                     u3454:
  5198  041E  3EFF               	addlw	-1
  5199  041F  1D03               	skipz
  5200  0420  2C1C               	goto	u3455
  5201  0421  0871               	movf	0+(??_ir_recieve+0+0),w
  5202  0422  00F2               	movwf	(??_ir_recieve+1+0)
  5203  0423  0872               	movf	(??_ir_recieve+1+0),w
  5204  0424  04CA               	iorwf	0+(_rcv_data)+02h,f
  5205  0425  2C6D               	goto	l30003066
  5206                           	
  5207  0426                     l30003061:	
  5208                           	line	166
  5209                           ;ir_in.c: 166: else if (i<32) {
  5210  0426  3020               	movlw	(020h)
  5211  0427  0227               	subwf	(ir_recieve@i),w
  5212  0428  1803               	skipnc
  5213  0429  2C2B               	goto	u3461
  5214  042A  2C2C               	goto	u3460
  5215  042B                     u3461:
  5216  042B  2C40               	goto	l30003063
  5217  042C                     u3460:
  5218                           	
  5219  042C                     l30003062:	
  5220                           	line	167
  5221                           ;ir_in.c: 167: rcv_data[3] |= ((s_data & 0x01) << (7 - (i-24)));
  5222  042C  0826               	movf	(ir_recieve@s_data),w
  5223  042D  3901               	andlw	01h
  5224  042E  00F1               	movwf	(??_ir_recieve+0+0)
  5225  042F  0827               	movf	(ir_recieve@i),w
  5226  0430  3EE8               	addlw	-24
  5227  0431  3AFF               	xorlw	0ffh
  5228  0432  3E01               	addlw	1
  5229  0433  3E07               	addlw	07h
  5230  0434  3E01               	addlw	1
  5231  0435  2C38               	goto	u3474
  5232  0436                     u3475:
  5233  0436  1003               	clrc
  5234  0437  0DF1               	rlf	(??_ir_recieve+0+0),f
  5235  0438                     u3474:
  5236  0438  3EFF               	addlw	-1
  5237  0439  1D03               	skipz
  5238  043A  2C36               	goto	u3475
  5239  043B  0871               	movf	0+(??_ir_recieve+0+0),w
  5240  043C  00F2               	movwf	(??_ir_recieve+1+0)
  5241  043D  0872               	movf	(??_ir_recieve+1+0),w
  5242  043E  04CB               	iorwf	0+(_rcv_data)+03h,f
  5243  043F  2C6D               	goto	l30003066
  5244                           	
  5245  0440                     l30003063:	
  5246                           	line	170
  5247                           ;ir_in.c: 170: else if (i<40) {
  5248  0440  3028               	movlw	(028h)
  5249  0441  0227               	subwf	(ir_recieve@i),w
  5250  0442  1803               	skipnc
  5251  0443  2C45               	goto	u3481
  5252  0444  2C46               	goto	u3480
  5253  0445                     u3481:
  5254  0445  2C5A               	goto	l30003065
  5255  0446                     u3480:
  5256                           	
  5257  0446                     l30003064:	
  5258                           	line	171
  5259                           ;ir_in.c: 171: rcv_data[4] |= ((s_data & 0x01) << (7 - (i-32)));
  5260  0446  0826               	movf	(ir_recieve@s_data),w
  5261  0447  3901               	andlw	01h
  5262  0448  00F1               	movwf	(??_ir_recieve+0+0)
  5263  0449  0827               	movf	(ir_recieve@i),w
  5264  044A  3EE0               	addlw	-32
  5265  044B  3AFF               	xorlw	0ffh
  5266  044C  3E01               	addlw	1
  5267  044D  3E07               	addlw	07h
  5268  044E  3E01               	addlw	1
  5269  044F  2C52               	goto	u3494
  5270  0450                     u3495:
  5271  0450  1003               	clrc
  5272  0451  0DF1               	rlf	(??_ir_recieve+0+0),f
  5273  0452                     u3494:
  5274  0452  3EFF               	addlw	-1
  5275  0453  1D03               	skipz
  5276  0454  2C50               	goto	u3495
  5277  0455  0871               	movf	0+(??_ir_recieve+0+0),w
  5278  0456  00F2               	movwf	(??_ir_recieve+1+0)
  5279  0457  0872               	movf	(??_ir_recieve+1+0),w
  5280  0458  04CC               	iorwf	0+(_rcv_data)+04h,f
  5281  0459  2C6D               	goto	l30003066
  5282                           	
  5283  045A                     l30003065:	
  5284                           	line	175
  5285                           ;ir_in.c: 174: else {
  5286                           ;ir_in.c: 175: rcv_data[5] |= ((s_data & 0x01) << (7 - (i-40)));
  5287  045A  0826               	movf	(ir_recieve@s_data),w
  5288  045B  3901               	andlw	01h
  5289  045C  00F1               	movwf	(??_ir_recieve+0+0)
  5290  045D  0827               	movf	(ir_recieve@i),w
  5291  045E  3ED8               	addlw	-40
  5292  045F  3AFF               	xorlw	0ffh
  5293  0460  3E01               	addlw	1
  5294  0461  3E07               	addlw	07h
  5295  0462  3E01               	addlw	1
  5296  0463  2C66               	goto	u3504
  5297  0464                     u3505:
  5298  0464  1003               	clrc
  5299  0465  0DF1               	rlf	(??_ir_recieve+0+0),f
  5300  0466                     u3504:
  5301  0466  3EFF               	addlw	-1
  5302  0467  1D03               	skipz
  5303  0468  2C64               	goto	u3505
  5304  0469  0871               	movf	0+(??_ir_recieve+0+0),w
  5305  046A  00F2               	movwf	(??_ir_recieve+1+0)
  5306  046B  0872               	movf	(??_ir_recieve+1+0),w
  5307  046C  04CD               	iorwf	0+(_rcv_data)+05h,f
  5308                           	
  5309  046D                     l30003066:	
  5310                           	line	142
  5311  046D  3001               	movlw	(01h)
  5312  046E  00F1               	movwf	(??_ir_recieve+0+0)
  5313  046F  0871               	movf	(??_ir_recieve+0+0),w
  5314  0470  07A7               	addwf	(ir_recieve@i),f
  5315                           	
  5316  0471                     l30003067:	
  5317  0471  3030               	movlw	(030h)
  5318  0472  0227               	subwf	(ir_recieve@i),w
  5319  0473  1C03               	skipc
  5320  0474  2C76               	goto	u3511
  5321  0475  2C77               	goto	u3510
  5322  0476                     u3511:
  5323  0476  2BC5               	goto	l43
  5324  0477                     u3510:
  5325                           	
  5326  0477                     l61:	
  5327                           	line	183
  5328  0477  1C07               	btfss	(7),(0)&7	;volatile
  5329  0478  2C7A               	goto	u3521
  5330  0479  2C7B               	goto	u3520
  5331  047A                     u3521:
  5332  047A  2C77               	goto	l61
  5333  047B                     u3520:
  5334                           	
  5335  047B                     l30003068:	
  5336                           	line	185
  5337                           ;ir_in.c: 185: Timer_Reset();
  5338  047B  120A  158A  2289   	fcall	_Timer_Reset
              120A  118A         
  5339  0480  2C89               	goto	l64
  5340                           	
  5341  0481                     l30003069:	
  5342                           	line	189
  5343                           ;ir_in.c: 189: if (TMR1H >= 0x08) {
  5344  0481  3008               	movlw	(08h)
  5345  0482  020F               	subwf	(15),w	;volatile
  5346  0483  1C03               	skipc
  5347  0484  2C86               	goto	u3531
  5348  0485  2C87               	goto	u3530
  5349  0486                     u3531:
  5350  0486  2C89               	goto	l64
  5351  0487                     u3530:
  5352                           	
  5353  0487                     l30003070:	
  5354                           	line	190
  5355                           ;ir_in.c: 190: return 0x00;
  5356  0487  3000               	movlw	(0)
  5357  0488  2C90               	goto	l3
  5358                           	
  5359  0489                     l64:	
  5360                           	line	187
  5361  0489  1283               	bcf	status, 5	;RP0=0, select bank0
  5362  048A  1303               	bcf	status, 6	;RP1=0, select bank0
  5363  048B  1807               	btfsc	(7),(0)&7	;volatile
  5364  048C  2C8E               	goto	u3541
  5365  048D  2C8F               	goto	u3540
  5366  048E                     u3541:
  5367  048E  2C81               	goto	l30003069
  5368  048F                     u3540:
  5369  048F  2B11               	goto	l30003023
  5370                           	
  5371  0490                     l3:	
  5372  0490  0008               	return
  5373                           	opt stack 0
  5374                           GLOBAL	__end_of_ir_recieve
  5375  0491                     	__end_of_ir_recieve:
  5376                           ; =============== function _ir_recieve ends ============
  5377                           
  5378                           psect	text233,local,class=CODE,delta=2
  5379                           global __ptext233
  5380  0B2E                     __ptext233:
  5381                           	line	194
  5382                           	signat	_ir_recieve,89
  5383                           	global	_cpu_sleep
  5384                           
  5385                           ; *************** function _cpu_sleep *****************
  5386                           ; Defined at:
  5387                           ;		line 161 in file "C:\Users\denjo\Documents\PIC\infrated_ray\ir_main.c"
  5388                           ; Parameters:    Size  Location     Type
  5389                           ;		None
  5390                           ; Auto vars:     Size  Location     Type
  5391                           ;		None
  5392                           ; Return value:  Size  Location     Type
  5393                           ;		None               void
  5394                           ; Registers used:
  5395                           ;		wreg
  5396                           ; Tracked objects:
  5397                           ;		On entry : 0/0
  5398                           ;		On exit  : 0/0
  5399                           ;		Unchanged: 0/0
  5400                           ; Data sizes:     COMMON   BANK0   BANK1   BANK3   BANK2
  5401                           ;      Locals:         1       0       0       0       0
  5402                           ;      Temp:     1
  5403                           ;      Total:    1
  5404                           ; This function calls:
  5405                           ;		__delay
  5406                           ; This function is called by:
  5407                           ;		_main
  5408                           ; This function uses a non-reentrant model
  5409                           ; 
  5410                           psect	text233
  5411                           	file	"C:\Users\denjo\Documents\PIC\infrated_ray\ir_main.c"
  5412                           	line	161
  5413                           	global	__size_of_cpu_sleep
  5414  001A                     	__size_of_cpu_sleep	equ	__end_of_cpu_sleep-_cpu_sleep
  5415                           ;ir_main.c: 160: void cpu_sleep(void)
  5416                           ;ir_main.c: 161: {
  5417                           	
  5418  0B2E                     _cpu_sleep:	
  5419                           	opt stack 6
  5420                           ; Regs used in _cpu_sleep: [wreg]
  5421                           	line	162
  5422                           	
  5423  0B2E                     l30003074:	
  5424                           ;ir_main.c: 162: PORTA = 0x0F;
  5425  0B2E  300F               	movlw	(0Fh)
  5426  0B2F  1283               	bcf	status, 5	;RP0=0, select bank0
  5427  0B30  1303               	bcf	status, 6	;RP1=0, select bank0
  5428  0B31  0085               	movwf	(5)	;volatile
  5429                           	line	163
  5430                           ;ir_main.c: 163: PORTB = 0x3C;
  5431  0B32  303C               	movlw	(03Ch)
  5432  0B33  0086               	movwf	(6)	;volatile
  5433                           	
  5434  0B34                     l30003075:	
  5435                           	line	165
  5436                           ;ir_main.c: 165: INTEDG = 1;
  5437  0B34  1683               	bsf	status, 5	;RP0=1, select bank1
  5438  0B35  1303               	bcf	status, 6	;RP1=0, select bank1
  5439  0B36  1701               	bsf	(1038/8)^080h,(1038)&7
  5440                           	
  5441  0B37                     l30003076:	
  5442                           	line	166
  5443                           ;ir_main.c: 166: INTF = 0;
  5444  0B37  1283               	bcf	status, 5	;RP0=0, select bank0
  5445  0B38  1303               	bcf	status, 6	;RP1=0, select bank0
  5446  0B39  108B               	bcf	(89/8),(89)&7
  5447                           	
  5448  0B3A                     l30003077:	
  5449                           	line	167
  5450                           ;ir_main.c: 167: INTE = 1;
  5451  0B3A  160B               	bsf	(92/8),(92)&7
  5452                           	
  5453  0B3B                     l30003078:	
  5454                           	line	169
  5455                           # 169 "C:\Users\denjo\Documents\PIC\infrated_ray\ir_main.c"
  5456  0B3B  0063               sleep ;#
  5457                           psect	text233
  5458                           	line	171
  5459                           ;ir_main.c: 171: _delay((unsigned long)((1)*(4000000/4000.0)));
  5460  0B3C  30F9               	movlw	249
  5461  0B3D  00F0               movwf	(??_cpu_sleep+0+0),f
  5462  0B3E                     u3947:
  5463  0B3E  0064               	clrwdt
  5464  0B3F  0BF0               decfsz	(??_cpu_sleep+0+0),f
  5465  0B40  2B3E               	goto	u3947
  5466  0B41  2B42               	nop2	;nop
  5467  0B42  0064               	clrwdt
  5468                           
  5469                           	
  5470  0B43                     l30003079:	
  5471                           	line	172
  5472                           ;ir_main.c: 172: INTF = 0;
  5473  0B43  1283               	bcf	status, 5	;RP0=0, select bank0
  5474  0B44  1303               	bcf	status, 6	;RP1=0, select bank0
  5475  0B45  108B               	bcf	(89/8),(89)&7
  5476                           	
  5477  0B46                     l30003080:	
  5478                           	line	173
  5479                           ;ir_main.c: 173: INTE = 0;
  5480  0B46  120B               	bcf	(92/8),(92)&7
  5481                           	
  5482  0B47                     l111:	
  5483  0B47  0008               	return
  5484                           	opt stack 0
  5485                           GLOBAL	__end_of_cpu_sleep
  5486  0B48                     	__end_of_cpu_sleep:
  5487                           ; =============== function _cpu_sleep ends ============
  5488                           
  5489                           psect	text234,local,class=CODE,delta=2
  5490                           global __ptext234
  5491  0F6B                     __ptext234:
  5492                           	line	176
  5493                           	signat	_cpu_sleep,88
  5494                           	global	_ir_out_start
  5495                           
  5496                           ; *************** function _ir_out_start *****************
  5497                           ; Defined at:
  5498                           ;		line 253 in file "C:\Users\denjo\Documents\PIC\infrated_ray\ir_out.c"
  5499                           ; Parameters:    Size  Location     Type
  5500                           ;  func_key        1    wreg     unsigned char 
  5501                           ;  key_code        1   17[BANK0 ] unsigned char 
  5502                           ; Auto vars:     Size  Location     Type
  5503                           ;  func_key        1   16[BANK0 ] unsigned char 
  5504                           ;  data_p          2   14[BANK0 ] PTR unsigned char 
  5505                           ;		 -> ir_func1_code_tbl(96), ir_func2_code_tbl(96), ir_func3_code_tbl(96), ir_func4_cod
                                 e_tbl(96), 
  5506                           ;  format          1   13[BANK0 ] unsigned char 
  5507                           ; Return value:  Size  Location     Type
  5508                           ;		None               void
  5509                           ; Registers used:
  5510                           ;		wreg, fsr0l, fsr0h, status,2, status,0, pclath, cstack
  5511                           ; Tracked objects:
  5512                           ;		On entry : 0/0
  5513                           ;		On exit  : 0/0
  5514                           ;		Unchanged: 0/0
  5515                           ; Data sizes:     COMMON   BANK0   BANK1   BANK3   BANK2
  5516                           ;      Locals:         0       8       0       0       0
  5517                           ;      Temp:     3
  5518                           ;      Total:    8
  5519                           ; This function calls:
  5520                           ;		_IR_NEC_format
  5521                           ;		_IR_KDN_format
  5522                           ; This function is called by:
  5523                           ;		_main
  5524                           ; This function uses a non-reentrant model
  5525                           ; 
  5526                           psect	text234
  5527                           	file	"C:\Users\denjo\Documents\PIC\infrated_ray\ir_out.c"
  5528                           	line	253
  5529                           	global	__size_of_ir_out_start
  5530  0095                     	__size_of_ir_out_start	equ	__end_of_ir_out_start-_ir_out_start
  5531                           ;ir_out.c: 252: void ir_out_start(unsigned char func_key, unsigned char key_code)
  5532                           ;ir_out.c: 253: {
  5533                           	
  5534  0F6B                     _ir_out_start:	
  5535                           	opt stack 6
  5536                           ; Regs used in _ir_out_start: [wreg-fsr0h+status,2+status,0+pclath+cstack]
  5537                           ;ir_out_start@func_key stored from wreg
  5538                           	line	259
  5539  0F6B  1283               	bcf	status, 5	;RP0=0, select bank0
  5540  0F6C  1303               	bcf	status, 6	;RP1=0, select bank0
  5541  0F6D  00B0               	movwf	(ir_out_start@func_key)
  5542                           	
  5543  0F6E                     l30002825:	
  5544                           ;ir_out.c: 254: unsigned char format;
  5545                           ;ir_out.c: 255: unsigned char* data_p;
  5546                           ;ir_out.c: 259: format = ir_format_tbl[func_key];
  5547  0F6E  0830               	movf	(ir_out_start@func_key),w
  5548  0F6F  3E03               	addlw	low ((_ir_format_tbl))
  5549  0F70  0084               	movwf	fsr0
  5550  0F71  3000               	movlw	high ((_ir_format_tbl))
  5551  0F72  1803               	skipnc
  5552  0F73  3E01               	addlw	1
  5553                           	FNCALL _ir_out_start,stringtab
  5554  0F74  120A  158A  2200   	fcall	stringtab
              120A  158A         
  5555  0F79  00AD               	movwf	(ir_out_start@format)
  5556                           	
  5557  0F7A                     l30002826:	
  5558                           	line	262
  5559                           ;ir_out.c: 262: if (func_key == KEY_CODE01) {
  5560  0F7A  08B0               	movf	(ir_out_start@func_key),f
  5561  0F7B  1D03               	skipz
  5562  0F7C  2F7E               	goto	u2871
  5563  0F7D  2F7F               	goto	u2870
  5564  0F7E                     u2871:
  5565  0F7E  2F95               	goto	l30002828
  5566  0F7F                     u2870:
  5567                           	
  5568  0F7F                     l30002827:	
  5569                           	line	264
  5570                           ;ir_out.c: 264: data_p = (unsigned char*)&ir_func1_code_tbl[(key_code-4)][0];
  5571  0F7F  0831               	movf	(ir_out_start@key_code),w
  5572  0F80  00AA               	movwf	(??_ir_out_start+0+0)
  5573  0F81  3002               	movlw	(03h)-1
  5574  0F82                     u2885:
  5575  0F82  1003               	clrc
  5576  0F83  0DAA               	rlf	(??_ir_out_start+0+0),f
  5577  0F84  3EFF               	addlw	-1
  5578  0F85  1D03               	skipz
  5579  0F86  2F82               	goto	u2885
  5580  0F87  1003               	clrc
  5581  0F88  0D2A               	rlf	(??_ir_out_start+0+0),w
  5582  0F89  3EE0               	addlw	0E0h
  5583+ 0F8A  3EA9               	addlw	low((_ir_func1_code_tbl))
  5584+ 0F8B  00AB               	movwf	(??_ir_out_start+1+0)
  5585+ 0F8C  300E               	movlw	high((_ir_func1_code_tbl))
  5586+ 0F8D  1803               	skipnc
  5587+ 0F8E  3E01               	addlw	1
  5588+ 0F8F  00AC               	movwf	1+((??_ir_out_start+1+0))
  5589+ 0F90  082B               	movf	0+(??_ir_out_start+1+0),w
  5590+ 0F91  00AE               	movwf	(ir_out_start@data_p)
  5591+ 0F92  082C               	movf	1+(??_ir_out_start+1+0),w
  5592+ 0F93  00AF               	movwf	((ir_out_start@data_p))+1
  5593+ 0F94  2FE2               	goto	l30002833
  5594+                          	
  5595+ 0F95                     l30002828:	
  5596+                          	line	265
  5597+ 0F95  0830               	movf	(ir_out_start@func_key),w
  5598+ 0F96  3A01               	xorlw	01h
  5599+ 0F97  1D03               	skipz
  5600+ 0F98  2F9A               	goto	u2891
  5601+ 0F99  2F9B               	goto	u2890
  5602+ 0F9A                     u2891:
  5603+ 0F9A  2FB1               	goto	l30002830
  5604+ 0F9B                     u2890:
  5605+                          	
  5606+ 0F9B                     l30002829:	
  5607+                          	line	267
  5608+                          ;ir_out.c: 267: data_p = (unsigned char*)&ir_func2_code_tbl[(key_code-4)][0];
  5609+ 0F9B  0831               	movf	(ir_out_start@key_code),w
  5610+ 0F9C  00AA               	movwf	(??_ir_out_start+0+0)
  5611+ 0F9D  3002               	movlw	(03h)-1
  5612+ 0F9E                     u2905:
  5613+ 0F9E  1003               	clrc
  5614+ 0F9F  0DAA               	rlf	(??_ir_out_start+0+0),f
  5615+ 0FA0  3EFF               	addlw	-1
  5616+ 0FA1  1D03               	skipz
  5617+ 0FA2  2F9E               	goto	u2905
  5618+ 0FA3  1003               	clrc
  5619+ 0FA4  0D2A               	rlf	(??_ir_out_start+0+0),w
  5620+ 0FA5  3EE0               	addlw	0E0h
  5621+ 0FA6  3E49               	addlw	low((_ir_func2_code_tbl))
  5622+ 0FA7  00AB               	movwf	(??_ir_out_start+1+0)
  5623+ 0FA8  300E               	movlw	high((_ir_func2_code_tbl))
  5624+ 0FA9  1803               	skipnc
  5625+ 0FAA  3E01               	addlw	1
  5626+ 0FAB  00AC               	movwf	1+((??_ir_out_start+1+0))
  5627+ 0FAC  082B               	movf	0+(??_ir_out_start+1+0),w
  5628+ 0FAD  00AE               	movwf	(ir_out_start@data_p)
  5629+ 0FAE  082C               	movf	1+(??_ir_out_start+1+0),w
  5630+ 0FAF  00AF               	movwf	((ir_out_start@data_p))+1
  5631+ 0FB0  2FE2               	goto	l30002833
  5632+                          	
  5633+ 0FB1                     l30002830:	
  5634+                          	line	268
  5635+ 0FB1  0830               	movf	(ir_out_start@func_key),w
  5636+ 0FB2  3A02               	xorlw	02h
  5637+ 0FB3  1D03               	skipz
  5638+ 0FB4  2FB6               	goto	u2911
  5639+ 0FB5  2FB7               	goto	u2910
  5640+ 0FB6                     u2911:
  5641+ 0FB6  2FCD               	goto	l30002832
  5642+ 0FB7                     u2910:
  5643+                          	
  5644+ 0FB7                     l30002831:	
  5645+                          	line	270
  5646+                          ;ir_out.c: 270: data_p = (unsigned char*)&ir_func3_code_tbl[(key_code-4)][0];
  5647+ 0FB7  0831               	movf	(ir_out_start@key_code),w
  5648+ 0FB8  00AA               	movwf	(??_ir_out_start+0+0)
  5649+ 0FB9  3002               	movlw	(03h)-1
  5650+ 0FBA                     u2925:
  5651+ 0FBA  1003               	clrc
  5652+ 0FBB  0DAA               	rlf	(??_ir_out_start+0+0),f
  5653+ 0FBC  3EFF               	addlw	-1
  5654+ 0FBD  1D03               	skipz
  5655+ 0FBE  2FBA               	goto	u2925
  5656+ 0FBF  1003               	clrc
  5657+ 0FC0  0D2A               	rlf	(??_ir_out_start+0+0),w
  5658+ 0FC1  3EE0               	addlw	0E0h
  5659+ 0FC2  3E29               	addlw	low((_ir_func3_code_tbl))
  5660+ 0FC3  00AB               	movwf	(??_ir_out_start+1+0)
  5661+ 0FC4  300D               	movlw	high((_ir_func3_code_tbl))
  5662+ 0FC5  1803               	skipnc
  5663+ 0FC6  3E01               	addlw	1
  5664+ 0FC7  00AC               	movwf	1+((??_ir_out_start+1+0))
  5665+ 0FC8  082B               	movf	0+(??_ir_out_start+1+0),w
  5666+ 0FC9  00AE               	movwf	(ir_out_start@data_p)
  5667+ 0FCA  082C               	movf	1+(??_ir_out_start+1+0),w
  5668+ 0FCB  00AF               	movwf	((ir_out_start@data_p))+1
  5669+ 0FCC  2FE2               	goto	l30002833
  5670+                          	
  5671+ 0FCD                     l30002832:	
  5672+                          	line	273
  5673+                          ;ir_out.c: 273: data_p = (unsigned char*)&ir_func4_code_tbl[(key_code-4)][0];
  5674+ 0FCD  0831               	movf	(ir_out_start@key_code),w
  5675+ 0FCE  00AA               	movwf	(??_ir_out_start+0+0)
  5676+ 0FCF  3002               	movlw	(03h)-1
  5677+ 0FD0                     u2935:
  5678+ 0FD0  1003               	clrc
  5679+ 0FD1  0DAA               	rlf	(??_ir_out_start+0+0),f
  5680+ 0FD2  3EFF               	addlw	-1
  5681+ 0FD3  1D03               	skipz
  5682+ 0FD4  2FD0               	goto	u2935
  5683+ 0FD5  1003               	clrc
  5684+ 0FD6  0D2A               	rlf	(??_ir_out_start+0+0),w
  5685+ 0FD7  3EE0               	addlw	0E0h
  5686+ 0FD8  3E89               	addlw	low((_ir_func4_code_tbl))
  5687+ 0FD9  00AB               	movwf	(??_ir_out_start+1+0)
  5688+ 0FDA  300D               	movlw	high((_ir_func4_code_tbl))
  5689+ 0FDB  1803               	skipnc
  5690+ 0FDC  3E01               	addlw	1
  5691+ 0FDD  00AC               	movwf	1+((??_ir_out_start+1+0))
  5692+ 0FDE  082B               	movf	0+(??_ir_out_start+1+0),w
  5693+ 0FDF  00AE               	movwf	(ir_out_start@data_p)
  5694+ 0FE0  082C               	movf	1+(??_ir_out_start+1+0),w
  5695+ 0FE1  00AF               	movwf	((ir_out_start@data_p))+1
  5696+                          	
  5697+ 0FE2                     l30002833:	
  5698+                          	line	277
  5699+                          ;ir_out.c: 274: }
  5700+                          ;ir_out.c: 277: if (format == 0x10) {
  5701+ 0FE2  082D               	movf	(ir_out_start@format),w
  5702+ 0FE3  3A10               	xorlw	010h
  5703+ 0FE4  1D03               	skipz
  5704+ 0FE5  2FE7               	goto	u2941
  5705+ 0FE6  2FE8               	goto	u2940
  5706+ 0FE7                     u2941:
  5707+ 0FE7  2FF4               	goto	l30002835
  5708+ 0FE8                     u2940:
  5709+                          	
  5710+ 0FE8                     l30002834:	
  5711+                          	line	279
  5712+                          ;ir_out.c: 279: IR_NEC_format(data_p);
  5713+ 0FE8  082F               	movf	(ir_out_start@data_p+1),w
  5714+ 0FE9  01A7               	clrf	(?_IR_NEC_format+1)
  5715+ 0FEA  07A7               	addwf	(?_IR_NEC_format+1)
  5716+ 0FEB  082E               	movf	(ir_out_start@data_p),w
  5717+ 0FEC  01A6               	clrf	(?_IR_NEC_format)
  5718+ 0FED  07A6               	addwf	(?_IR_NEC_format)
  5719+                          
  5720+ 0FEE  120A  158A  25E9   	fcall	_IR_NEC_format
      +       120A  158A         
  5721+ 0FF3  2FFF               	goto	l223
  5722+                          	
  5723+ 0FF4                     l30002835:	
  5724+                          	line	282
  5725+                          ;ir_out.c: 282: IR_KDN_format(data_p);
  5726+ 0FF4  082F               	movf	(ir_out_start@data_p+1),w
  5727+ 0FF5  01A9               	clrf	(?_IR_KDN_format+1)
  5728+ 0FF6  07A9               	addwf	(?_IR_KDN_format+1)
  5729+ 0FF7  082E               	movf	(ir_out_start@data_p),w
  5730+ 0FF8  01A8               	clrf	(?_IR_KDN_format)
  5731+ 0FF9  07A8               	addwf	(?_IR_KDN_format)
  5732+                          
  5733+ 0FFA  120A  158A  2709   	fcall	_IR_KDN_format
      +       120A  158A         
  5734+                          	
  5735+ 0FFF                     l223:	
  5736+ 0FFF  0008               	return
  5737+                          	opt stack 0
  5738+                          GLOBAL	__end_of_ir_out_start
  5739+ 1000                     	__end_of_ir_out_start:
  5740+                          ; =============== function _ir_out_start ends ============
  5741+                          
  5742+                          psect	text235,local,class=CODE,delta=2
  5743+                          global __ptext235
  5744+ 0007                     __ptext235:
  5745+                          	line	285
  5746+                          	signat	_ir_out_start,8312
  5747+                          	global	_led_control
  5748+                          
  5749+                          ; *************** function _led_control *****************
  5750+                          ; Defined at:
  5751+                          ;		line 140 in file "C:\Users\denjo\Documents\PIC\infrated_ray\ir_main.c"
  5752+                          ; Parameters:    Size  Location     Type
  5753+                          ;  led_state       1    wreg     unsigned char 
  5754+                          ; Auto vars:     Size  Location     Type
  5755+                          ;  led_state       1    1[COMMON] unsigned char 
  5756+                          ; Return value:  Size  Location     Type
  5757+                          ;		None               void
  5758+                          ; Registers used:
  5759+                          ;		wreg, status,2, status,0
  5760+                          ; Tracked objects:
  5761+                          ;		On entry : 0/0
  5762+                          ;		On exit  : 0/0
  5763+                          ;		Unchanged: 0/0
  5764+                          ; Data sizes:     COMMON   BANK0   BANK1   BANK3   BANK2
  5765+                          ;      Locals:         2       0       0       0       0
  5766+                          ;      Temp:     1
  5767+                          ;      Total:    2
  5768+                          ; This function calls:
  5769+                          ;		Nothing
  5770+                          ; This function is called by:
  5771+                          ;		_main
  5772+                          ; This function uses a non-reentrant model
  5773+                          ; 
  5774+                          psect	text235
  5775+                          	file	"C:\Users\denjo\Documents\PIC\infrated_ray\ir_main.c"
  5776+                          	line	140
  5777+                          	global	__size_of_led_control
  5778+ 0012                     	__size_of_led_control	equ	__end_of_led_control-_led_control
  5779+                          ;ir_main.c: 139: void led_control(unsigned char led_state)
  5780+                          ;ir_main.c: 140: {
  5781+                          	
  5782+ 0007                     _led_control:	
  5783+                          	opt stack 6
  5784+                          ; Regs used in _led_control: [wreg+status,2+status,0]
  5785+                          ;led_control@led_state stored from wreg
  5786+ 0007  00F1               	movwf	(led_control@led_state)
  5787+                          	
  5788+ 0008                     l30003082:	
  5789+                          	line	141
  5790+                          ;ir_main.c: 141: PORTC &= 0xC3;
  5791+ 0008  30C3               	movlw	(0C3h)
  5792+ 0009  00F0               	movwf	(??_led_control+0+0)
  5793+ 000A  0870               	movf	(??_led_control+0+0),w
  5794+ 000B  1283               	bcf	status, 5	;RP0=0, select bank0
  5795+ 000C  1303               	bcf	status, 6	;RP1=0, select bank0
  5796+ 000D  0587               	andwf	(7),f	;volatile
  5797+                          	
  5798+ 000E                     l30003083:	
  5799+                          	line	142
  5800+                          ;ir_main.c: 142: if (led_state != 0xC3) {
  5801+ 000E  0871               	movf	(led_control@led_state),w
  5802+ 000F  3AC3               	xorlw	0C3h
  5803+ 0010  1903               	skipnz
  5804+ 0011  2813               	goto	u3551
  5805+ 0012  2814               	goto	u3550
  5806+ 0013                     u3551:
  5807+ 0013  2818               	goto	l108
  5808+ 0014                     u3550:
  5809+                          	
  5810+ 0014                     l30003084:	
  5811+                          	line	143
  5812+                          ;ir_main.c: 143: PORTC |= led_state;
  5813+ 0014  0871               	movf	(led_control@led_state),w
  5814+ 0015  00F0               	movwf	(??_led_control+0+0)
  5815+ 0016  0870               	movf	(??_led_control+0+0),w
  5816+ 0017  0487               	iorwf	(7),f	;volatile
  5817+                          	
  5818+ 0018                     l108:	
  5819+ 0018  0008               	return
  5820+                          	opt stack 0
  5821+                          GLOBAL	__end_of_led_control
  5822+ 0019                     	__end_of_led_control:
  5823+                          ; =============== function _led_control ends ============
  5824+                          
  5825+                          psect	text236,local,class=CODE,delta=2
  5826+                          global __ptext236
  5827+ 00F4                     __ptext236:
  5828+                          	line	145
  5829+                          	signat	_led_control,4216
  5830+                          	global	_key_input_check
  5831+                          
  5832+                          ; *************** function _key_input_check *****************
  5833+                          ; Defined at:
  5834+                          ;		line 52 in file "C:\Users\denjo\Documents\PIC\infrated_ray\ir_main.c"
  5835+                          ; Parameters:    Size  Location     Type
  5836+                          ;		None
  5837+                          ; Auto vars:     Size  Location     Type
  5838+                          ;  code            1    2[COMMON] unsigned char 
  5839+                          ;  i               1    1[COMMON] unsigned char 
  5840+                          ; Return value:  Size  Location     Type
  5841+                          ;                  1    wreg      unsigned char 
  5842+                          ; Registers used:
  5843+                          ;		wreg, fsr0l, fsr0h, status,2, status,0
  5844+                          ; Tracked objects:
  5845+                          ;		On entry : 0/0
  5846+                          ;		On exit  : 0/0
  5847+                          ;		Unchanged: 0/0
  5848+                          ; Data sizes:     COMMON   BANK0   BANK1   BANK3   BANK2
  5849+                          ;      Locals:         3       0       0       0       0
  5850+                          ;      Temp:     1
  5851+                          ;      Total:    3
  5852+                          ; This function calls:
  5853+                          ;		__delay
  5854+                          ; This function is called by:
  5855+                          ;		_main
  5856+                          ; This function uses a non-reentrant model
  5857+                          ; 
  5858+                          psect	text236
  5859+                          	file	"C:\Users\denjo\Documents\PIC\infrated_ray\ir_main.c"
  5860+                          	line	52
  5861+                          	global	__size_of_key_input_check
  5862+ 00DC                     	__size_of_key_input_check	equ	__end_of_key_input_check-_key_input_check
  5863+                          ;ir_main.c: 25: asm("\tpsect config,class=CONFIG,delta=2"); asm("\tdw ""0x3FFC & 0x3FF7 
      +                          & 0x3FFF & 0x3FFF & 0x3CFF & 0x2FFF");
  5864+                          ;ir_main.c: 30: unsigned char key_input_check(void);
  5865+                          ;ir_main.c: 31: void led_control(unsigned char led_state);
  5866+                          ;ir_main.c: 32: void motion_control(unsigned char motion_state);
  5867+                          ;ir_main.c: 33: void cpu_sleep(void);
  5868+                          ;ir_main.c: 38: unsigned char rcv_data[0x08];
  5869+                          ;ir_main.c: 39: unsigned char pre_data[0x08];
  5870+                          ;ir_main.c: 40: unsigned char rx_format;
  5871+                          ;ir_main.c: 41: unsigned char eep_rdata[(0x07 * 0x04)];
  5872+                          	
  5873+ 00F4                     _key_input_check:	
  5874+                          	opt stack 6
  5875+                          ; Regs used in _key_input_check: [wreg-fsr0h+status,2+status,0]
  5876+                          	line	53
  5877+                          	
  5878+ 00F4                     l30003085:	
  5879+                          ;ir_main.c: 53: unsigned char code = KEY_OFF;
  5880+ 00F4  30FF               	movlw	(0FFh)
  5881+ 00F5  00F2               	movwf	(key_input_check@code)
  5882+                          	
  5883+ 00F6                     l30003086:	
  5884+                          	line	56
  5885+                          ;ir_main.c: 54: unsigned char i;
  5886+                          ;ir_main.c: 56: PORTB = 0x00;
  5887+ 00F6  1003               	clrc
  5888+ 00F7  3000               	movlw	0
  5889+ 00F8  1803               	btfsc	status,0
  5890+ 00F9  3001               	movlw	1
  5891+ 00FA  1283               	bcf	status, 5	;RP0=0, select bank0
  5892+ 00FB  1303               	bcf	status, 6	;RP1=0, select bank0
  5893+ 00FC  0086               	movwf	(6)	;volatile
  5894+                          	
  5895+ 00FD                     l30003087:	
  5896+                          	line	58
  5897+                          ;ir_main.c: 58: for (i=0; i<4; i++) {
  5898+ 00FD  1003               	clrc
  5899+ 00FE  3000               	movlw	0
  5900+ 00FF  1803               	btfsc	status,0
  5901+ 0100  3001               	movlw	1
  5902+ 0101  00F1               	movwf	(key_input_check@i)
  5903+ 0102  29AF               	goto	l30003118
  5904+                          	
  5905+ 0103                     l75:	
  5906+                          	line	61
  5907+                          ;ir_main.c: 61: PORTB |= 0x04;
  5908+ 0103  1283               	bcf	status, 5	;RP0=0, select bank0
  5909+ 0104  1303               	bcf	status, 6	;RP1=0, select bank0
  5910+ 0105  1506               	bsf	(6)+(2/8),(2)&7	;volatile
  5911+                          	
  5912+ 0106                     l30003089:	
  5913+                          	line	62
  5914+                          ;ir_main.c: 62: _delay((unsigned long)((10)*(4000000/4000000.0)));
  5915+ 0106  3003               	movlw	3
  5916+ 0107  00F0               movwf	(??_key_input_check+0+0),f
  5917+ 0108                     u3957:
  5918+ 0108  0BF0               decfsz	(??_key_input_check+0+0),f
  5919+ 0109  2908               	goto	u3957
  5920+                          
  5921+                          	
  5922+ 010A                     l30003090:	
  5923+                          	line	64
  5924+                          ;ir_main.c: 64: if (PORTA & 0x01) {
  5925+ 010A  1283               	bcf	status, 5	;RP0=0, select bank0
  5926+ 010B  1303               	bcf	status, 6	;RP1=0, select bank0
  5927+ 010C  1C05               	btfss	(5),(0)&7	;volatile
  5928+ 010D  290F               	goto	u3561
  5929+ 010E  2910               	goto	u3560
  5930+ 010F                     u3561:
  5931+ 010F  2916               	goto	l76
  5932+ 0110                     u3560:
  5933+                          	
  5934+ 0110                     l30003091:	
  5935+                          	line	65
  5936+                          ;ir_main.c: 65: code = KEY_CODE01;
  5937+ 0110  1003               	clrc
  5938+ 0111  3000               	movlw	0
  5939+ 0112  1803               	btfsc	status,0
  5940+ 0113  3001               	movlw	1
  5941+ 0114  00F2               	movwf	(key_input_check@code)
  5942+ 0115  292C               	goto	l30003095
  5943+                          	
  5944+ 0116                     l76:	
  5945+                          	line	66
  5946+ 0116  1C85               	btfss	(5),(1)&7	;volatile
  5947+ 0117  2919               	goto	u3571
  5948+ 0118  291A               	goto	u3570
  5949+ 0119                     u3571:
  5950+ 0119  291E               	goto	l78
  5951+ 011A                     u3570:
  5952+                          	
  5953+ 011A                     l30003092:	
  5954+                          	line	67
  5955+                          ;ir_main.c: 67: code = KEY_CODE02;
  5956+ 011A  01F2               	clrf	(key_input_check@code)
  5957+ 011B  1403               	bsf	status,0
  5958+ 011C  0DF2               	rlf	(key_input_check@code),f
  5959+ 011D  292C               	goto	l30003095
  5960+                          	
  5961+ 011E                     l78:	
  5962+                          	line	68
  5963+ 011E  1D05               	btfss	(5),(2)&7	;volatile
  5964+ 011F  2921               	goto	u3581
  5965+ 0120  2922               	goto	u3580
  5966+ 0121                     u3581:
  5967+ 0121  2925               	goto	l80
  5968+ 0122                     u3580:
  5969+                          	
  5970+ 0122                     l30003093:	
  5971+                          	line	69
  5972+                          ;ir_main.c: 69: code = KEY_CODE03;
  5973+ 0122  3002               	movlw	(02h)
  5974+ 0123  00F2               	movwf	(key_input_check@code)
  5975+ 0124  292C               	goto	l30003095
  5976+                          	
  5977+ 0125                     l80:	
  5978+                          	line	70
  5979+ 0125  1D85               	btfss	(5),(3)&7	;volatile
  5980+ 0126  2928               	goto	u3591
  5981+ 0127  2929               	goto	u3590
  5982+ 0128                     u3591:
  5983+ 0128  292C               	goto	l79
  5984+ 0129                     u3590:
  5985+                          	
  5986+ 0129                     l30003094:	
  5987+                          	line	71
  5988+                          ;ir_main.c: 71: code = KEY_CODE04;
  5989+ 0129  3003               	movlw	(03h)
  5990+ 012A  00F2               	movwf	(key_input_check@code)
  5991+ 012B  292C               	goto	l30003095
  5992+                          	
  5993+ 012C                     l79:	
  5994+                          	
  5995+ 012C                     l30003095:	
  5996+                          	line	73
  5997+                          ;ir_main.c: 72: }
  5998+                          ;ir_main.c: 73: PORTB &= ~0x04;
  5999+ 012C  30FB               	movlw	(0FBh)
  6000+ 012D  00F0               	movwf	(??_key_input_check+0+0)
  6001+ 012E  0870               	movf	(??_key_input_check+0+0),w
  6002+ 012F  0586               	andwf	(6),f	;volatile
  6003+ 0130  29BD               	goto	l30003119
  6004+                          	
  6005+ 0131                     l83:	
  6006+                          	line	77
  6007+                          ;ir_main.c: 77: PORTB |= 0x08;
  6008+ 0131  1283               	bcf	status, 5	;RP0=0, select bank0
  6009+ 0132  1303               	bcf	status, 6	;RP1=0, select bank0
  6010+ 0133  1586               	bsf	(6)+(3/8),(3)&7	;volatile
  6011+                          	
  6012+ 0134                     l30003096:	
  6013+                          	line	78
  6014+                          ;ir_main.c: 78: _delay((unsigned long)((10)*(4000000/4000000.0)));
  6015+ 0134  3003               	movlw	3
  6016+ 0135  00F0               movwf	(??_key_input_check+0+0),f
  6017+ 0136                     u3967:
  6018+ 0136  0BF0               decfsz	(??_key_input_check+0+0),f
  6019+ 0137  2936               	goto	u3967
  6020+                          
  6021+                          	
  6022+ 0138                     l30003097:	
  6023+                          	line	80
  6024+                          ;ir_main.c: 80: if (PORTA & 0x01) {
  6025+ 0138  1283               	bcf	status, 5	;RP0=0, select bank0
  6026+ 0139  1303               	bcf	status, 6	;RP1=0, select bank0
  6027+ 013A  1C05               	btfss	(5),(0)&7	;volatile
  6028+ 013B  293D               	goto	u3601
  6029+ 013C  293E               	goto	u3600
  6030+ 013D                     u3601:
  6031+ 013D  2941               	goto	l84
  6032+ 013E                     u3600:
  6033+                          	
  6034+ 013E                     l30003098:	
  6035+                          	line	81
  6036+                          ;ir_main.c: 81: code = KEY_CODE05;
  6037+ 013E  3004               	movlw	(04h)
  6038+ 013F  00F2               	movwf	(key_input_check@code)
  6039+ 0140  2956               	goto	l30003102
  6040+                          	
  6041+ 0141                     l84:	
  6042+                          	line	82
  6043+ 0141  1C85               	btfss	(5),(1)&7	;volatile
  6044+ 0142  2944               	goto	u3611
  6045+ 0143  2945               	goto	u3610
  6046+ 0144                     u3611:
  6047+ 0144  2948               	goto	l86
  6048+ 0145                     u3610:
  6049+                          	
  6050+ 0145                     l30003099:	
  6051+                          	line	83
  6052+                          ;ir_main.c: 83: code = KEY_CODE06;
  6053+ 0145  3005               	movlw	(05h)
  6054+ 0146  00F2               	movwf	(key_input_check@code)
  6055+ 0147  2956               	goto	l30003102
  6056+                          	
  6057+ 0148                     l86:	
  6058+                          	line	84
  6059+ 0148  1D05               	btfss	(5),(2)&7	;volatile
  6060+ 0149  294B               	goto	u3621
  6061+ 014A  294C               	goto	u3620
  6062+ 014B                     u3621:
  6063+ 014B  294F               	goto	l88
  6064+ 014C                     u3620:
  6065+                          	
  6066+ 014C                     l30003100:	
  6067+                          	line	85
  6068+                          ;ir_main.c: 85: code = KEY_CODE07;
  6069+ 014C  3006               	movlw	(06h)
  6070+ 014D  00F2               	movwf	(key_input_check@code)
  6071+ 014E  2956               	goto	l30003102
  6072+                          	
  6073+ 014F                     l88:	
  6074+                          	line	86
  6075+ 014F  1D85               	btfss	(5),(3)&7	;volatile
  6076+ 0150  2952               	goto	u3631
  6077+ 0151  2953               	goto	u3630
  6078+ 0152                     u3631:
  6079+ 0152  2956               	goto	l87
  6080+ 0153                     u3630:
  6081+                          	
  6082+ 0153                     l30003101:	
  6083+                          	line	87
  6084+                          ;ir_main.c: 87: code = KEY_CODE08;
  6085+ 0153  3007               	movlw	(07h)
  6086+ 0154  00F2               	movwf	(key_input_check@code)
  6087+ 0155  2956               	goto	l30003102
  6088+                          	
  6089+ 0156                     l87:	
  6090+                          	
  6091+ 0156                     l30003102:	
  6092+                          	line	89
  6093+                          ;ir_main.c: 88: }
  6094+                          ;ir_main.c: 89: PORTB &= ~0x08;
  6095+ 0156  30F7               	movlw	(0F7h)
  6096+ 0157  00F0               	movwf	(??_key_input_check+0+0)
  6097+ 0158  0870               	movf	(??_key_input_check+0+0),w
  6098+ 0159  0586               	andwf	(6),f	;volatile
  6099+ 015A  29BD               	goto	l30003119
  6100+                          	
  6101+ 015B                     l91:	
  6102+                          	line	93
  6103+                          ;ir_main.c: 93: PORTB |= 0x10;
  6104+ 015B  1283               	bcf	status, 5	;RP0=0, select bank0
  6105+ 015C  1303               	bcf	status, 6	;RP1=0, select bank0
  6106+ 015D  1606               	bsf	(6)+(4/8),(4)&7	;volatile
  6107+                          	
  6108+ 015E                     l30003103:	
  6109+                          	line	94
  6110+                          ;ir_main.c: 94: _delay((unsigned long)((10)*(4000000/4000000.0)));
  6111+ 015E  3003               	movlw	3
  6112+ 015F  00F0               movwf	(??_key_input_check+0+0),f
  6113+ 0160                     u3977:
  6114+ 0160  0BF0               decfsz	(??_key_input_check+0+0),f
  6115+ 0161  2960               	goto	u3977
  6116+                          
  6117+                          	
  6118+ 0162                     l30003104:	
  6119+                          	line	96
  6120+                          ;ir_main.c: 96: if (PORTA & 0x01) {
  6121+ 0162  1283               	bcf	status, 5	;RP0=0, select bank0
  6122+ 0163  1303               	bcf	status, 6	;RP1=0, select bank0
  6123+ 0164  1C05               	btfss	(5),(0)&7	;volatile
  6124+ 0165  2967               	goto	u3641
  6125+ 0166  2968               	goto	u3640
  6126+ 0167                     u3641:
  6127+ 0167  296B               	goto	l92
  6128+ 0168                     u3640:
  6129+                          	
  6130+ 0168                     l30003105:	
  6131+                          	line	97
  6132+                          ;ir_main.c: 97: code = KEY_CODE09;
  6133+ 0168  3008               	movlw	(08h)
  6134+ 0169  00F2               	movwf	(key_input_check@code)
  6135+ 016A  2980               	goto	l30003109
  6136+                          	
  6137+ 016B                     l92:	
  6138+                          	line	98
  6139+ 016B  1C85               	btfss	(5),(1)&7	;volatile
  6140+ 016C  296E               	goto	u3651
  6141+ 016D  296F               	goto	u3650
  6142+ 016E                     u3651:
  6143+ 016E  2972               	goto	l94
  6144+ 016F                     u3650:
  6145+                          	
  6146+ 016F                     l30003106:	
  6147+                          	line	99
  6148+                          ;ir_main.c: 99: code = KEY_CODE10;
  6149+ 016F  3009               	movlw	(09h)
  6150+ 0170  00F2               	movwf	(key_input_check@code)
  6151+ 0171  2980               	goto	l30003109
  6152+                          	
  6153+ 0172                     l94:	
  6154+                          	line	100
  6155+ 0172  1D05               	btfss	(5),(2)&7	;volatile
  6156+ 0173  2975               	goto	u3661
  6157+ 0174  2976               	goto	u3660
  6158+ 0175                     u3661:
  6159+ 0175  2979               	goto	l96
  6160+ 0176                     u3660:
  6161+                          	
  6162+ 0176                     l30003107:	
  6163+                          	line	101
  6164+                          ;ir_main.c: 101: code = KEY_CODE11;
  6165+ 0176  300A               	movlw	(0Ah)
  6166+ 0177  00F2               	movwf	(key_input_check@code)
  6167+ 0178  2980               	goto	l30003109
  6168+                          	
  6169+ 0179                     l96:	
  6170+                          	line	102
  6171+ 0179  1D85               	btfss	(5),(3)&7	;volatile
  6172+ 017A  297C               	goto	u3671
  6173+ 017B  297D               	goto	u3670
  6174+ 017C                     u3671:
  6175+ 017C  2980               	goto	l95
  6176+ 017D                     u3670:
  6177+                          	
  6178+ 017D                     l30003108:	
  6179+                          	line	103
  6180+                          ;ir_main.c: 103: code = KEY_CODE12;
  6181+ 017D  300B               	movlw	(0Bh)
  6182+ 017E  00F2               	movwf	(key_input_check@code)
  6183+ 017F  2980               	goto	l30003109
  6184+                          	
  6185+ 0180                     l95:	
  6186+                          	
  6187+ 0180                     l30003109:	
  6188+                          	line	105
  6189+                          ;ir_main.c: 104: }
  6190+                          ;ir_main.c: 105: PORTB &= ~0x10;
  6191+ 0180  30EF               	movlw	(0EFh)
  6192+ 0181  00F0               	movwf	(??_key_input_check+0+0)
  6193+ 0182  0870               	movf	(??_key_input_check+0+0),w
  6194+ 0183  0586               	andwf	(6),f	;volatile
  6195+ 0184  29BD               	goto	l30003119
  6196+                          	
  6197+ 0185                     l99:	
  6198+                          	line	109
  6199+                          ;ir_main.c: 109: PORTB |= 0x20;
  6200+ 0185  1283               	bcf	status, 5	;RP0=0, select bank0
  6201+ 0186  1303               	bcf	status, 6	;RP1=0, select bank0
  6202+ 0187  1686               	bsf	(6)+(5/8),(5)&7	;volatile
  6203+                          	
  6204+ 0188                     l30003110:	
  6205+                          	line	110
  6206+                          ;ir_main.c: 110: _delay((unsigned long)((10)*(4000000/4000000.0)));
  6207+ 0188  3003               	movlw	3
  6208+ 0189  00F0               movwf	(??_key_input_check+0+0),f
  6209+ 018A                     u3987:
  6210+ 018A  0BF0               decfsz	(??_key_input_check+0+0),f
  6211+ 018B  298A               	goto	u3987
  6212+                          
  6213+                          	
  6214+ 018C                     l30003111:	
  6215+                          	line	112
  6216+                          ;ir_main.c: 112: if (PORTA & 0x01) {
  6217+ 018C  1283               	bcf	status, 5	;RP0=0, select bank0
  6218+ 018D  1303               	bcf	status, 6	;RP1=0, select bank0
  6219+ 018E  1C05               	btfss	(5),(0)&7	;volatile
  6220+ 018F  2991               	goto	u3681
  6221+ 0190  2992               	goto	u3680
  6222+ 0191                     u3681:
  6223+ 0191  2995               	goto	l100
  6224+ 0192                     u3680:
  6225+                          	
  6226+ 0192                     l30003112:	
  6227+                          	line	113
  6228+                          ;ir_main.c: 113: code = KEY_CODE13;
  6229+ 0192  300C               	movlw	(0Ch)
  6230+ 0193  00F2               	movwf	(key_input_check@code)
  6231+ 0194  29AA               	goto	l30003116
  6232+                          	
  6233+ 0195                     l100:	
  6234+                          	line	114
  6235+ 0195  1C85               	btfss	(5),(1)&7	;volatile
  6236+ 0196  2998               	goto	u3691
  6237+ 0197  2999               	goto	u3690
  6238+ 0198                     u3691:
  6239+ 0198  299C               	goto	l102
  6240+ 0199                     u3690:
  6241+                          	
  6242+ 0199                     l30003113:	
  6243+                          	line	115
  6244+                          ;ir_main.c: 115: code = KEY_CODE14;
  6245+ 0199  300D               	movlw	(0Dh)
  6246+ 019A  00F2               	movwf	(key_input_check@code)
  6247+ 019B  29AA               	goto	l30003116
  6248+                          	
  6249+ 019C                     l102:	
  6250+                          	line	116
  6251+ 019C  1D05               	btfss	(5),(2)&7	;volatile
  6252+ 019D  299F               	goto	u3701
  6253+ 019E  29A0               	goto	u3700
  6254+ 019F                     u3701:
  6255+ 019F  29A3               	goto	l104
  6256+ 01A0                     u3700:
  6257+                          	
  6258+ 01A0                     l30003114:	
  6259+                          	line	117
  6260+                          ;ir_main.c: 117: code = KEY_CODE15;
  6261+ 01A0  300E               	movlw	(0Eh)
  6262+ 01A1  00F2               	movwf	(key_input_check@code)
  6263+ 01A2  29AA               	goto	l30003116
  6264+                          	
  6265+ 01A3                     l104:	
  6266+                          	line	118
  6267+ 01A3  1D85               	btfss	(5),(3)&7	;volatile
  6268+ 01A4  29A6               	goto	u3711
  6269+ 01A5  29A7               	goto	u3710
  6270+ 01A6                     u3711:
  6271+ 01A6  29AA               	goto	l103
  6272+ 01A7                     u3710:
  6273+                          	
  6274+ 01A7                     l30003115:	
  6275+                          	line	119
  6276+                          ;ir_main.c: 119: code = KEY_CODE16;
  6277+ 01A7  300F               	movlw	(0Fh)
  6278+ 01A8  00F2               	movwf	(key_input_check@code)
  6279+ 01A9  29AA               	goto	l30003116
  6280+                          	
  6281+ 01AA                     l103:	
  6282+                          	
  6283+ 01AA                     l30003116:	
  6284+                          	line	121
  6285+                          ;ir_main.c: 120: }
  6286+                          ;ir_main.c: 121: PORTB &= ~0x20;
  6287+ 01AA  30DF               	movlw	(0DFh)
  6288+ 01AB  00F0               	movwf	(??_key_input_check+0+0)
  6289+ 01AC  0870               	movf	(??_key_input_check+0+0),w
  6290+ 01AD  0586               	andwf	(6),f	;volatile
  6291+ 01AE  29BD               	goto	l30003119
  6292+                          	
  6293+ 01AF                     l30003118:	
  6294+                          	line	59
  6295+ 01AF  0871               	movf	(key_input_check@i),w
  6296+ 01B0  3A00               		xorlw	0^0
  6297+ 01B1  1903               	skipnz
  6298+ 01B2  2903               	goto	l75
  6299+ 01B3  3A01               	xorlw	1^0
  6300+ 01B4  1903               	skipnz
  6301+ 01B5  2931               	goto	l83
  6302+ 01B6  3A03               	xorlw	2^1
  6303+ 01B7  1903               	skipnz
  6304+ 01B8  295B               	goto	l91
  6305+ 01B9  3A01               	xorlw	3^2
  6306+ 01BA  1903               	skipnz
  6307+ 01BB  2985               	goto	l99
  6308+ 01BC  29BD               	goto	l30003119
  6309+                          
  6310+                          	
  6311+ 01BD                     l30003119:	
  6312+                          	line	124
  6313+                          ;ir_main.c: 124: if (code != KEY_OFF) {
  6314+ 01BD  0872               	movf	(key_input_check@code),w
  6315+ 01BE  3AFF               	xorlw	0FFh
  6316+ 01BF  1903               	skipnz
  6317+ 01C0  29C2               	goto	u3721
  6318+ 01C1  29C3               	goto	u3720
  6319+ 01C2                     u3721:
  6320+ 01C2  29C4               	goto	l30003121
  6321+ 01C3                     u3720:
  6322+ 01C3  29CE               	goto	l30003123
  6323+                          	
  6324+ 01C4                     l30003121:	
  6325+                          	line	58
  6326+ 01C4  3001               	movlw	(01h)
  6327+ 01C5  00F0               	movwf	(??_key_input_check+0+0)
  6328+ 01C6  0870               	movf	(??_key_input_check+0+0),w
  6329+ 01C7  07F1               	addwf	(key_input_check@i),f
  6330+                          	
  6331+ 01C8                     l30003122:	
  6332+ 01C8  3004               	movlw	(04h)
  6333+ 01C9  0271               	subwf	(key_input_check@i),w
  6334+ 01CA  1C03               	skipc
  6335+ 01CB  29CD               	goto	u3731
  6336+ 01CC  29CE               	goto	u3730
  6337+ 01CD                     u3731:
  6338+ 01CD  29AF               	goto	l30003118
  6339+ 01CE                     u3730:
  6340+                          	
  6341+ 01CE                     l30003123:	
  6342+                          	line	128
  6343+                          ;ir_main.c: 126: }
  6344+                          ;ir_main.c: 127: }
  6345+                          ;ir_main.c: 128: return code;
  6346+ 01CE  0872               	movf	(key_input_check@code),w
  6347+                          	
  6348+ 01CF                     l69:	
  6349+ 01CF  0008               	return
  6350+                          	opt stack 0
  6351+                          GLOBAL	__end_of_key_input_check
  6352+ 01D0                     	__end_of_key_input_check:
  6353+                          ; =============== function _key_input_check ends ============
  6354+                          
  6355+                          psect	text237,local,class=CODE,delta=2
  6356+                          global __ptext237
  6357+ 0C3B                     __ptext237:
  6358+                          	line	129
  6359+                          	signat	_key_input_check,89
  6360+                          	global	_lcd_put_ir_data
  6361+                          
  6362+                          ; *************** function _lcd_put_ir_data *****************
  6363+                          ; Defined at:
  6364+                          ;		line 286 in file "C:\Users\denjo\Documents\PIC\infrated_ray\lcd.c"
  6365+                          ; Parameters:    Size  Location     Type
  6366+                          ;  ir_data         1    wreg     PTR unsigned char 
  6367+                          ;		 -> rcv_data(8), 
  6368+                          ;  size            1   12[BANK0 ] unsigned char 
  6369+                          ; Auto vars:     Size  Location     Type
  6370+                          ;  ir_data         1    9[BANK0 ] PTR unsigned char 
  6371+                          ;		 -> rcv_data(8), 
  6372+                          ;  i               1   11[BANK0 ] unsigned char 
  6373+                          ;  ir_char         1   10[BANK0 ] unsigned char 
  6374+                          ; Return value:  Size  Location     Type
  6375+                          ;		None               void
  6376+                          ; Registers used:
  6377+                          ;		wreg, fsr0l, fsr0h, status,2, status,0, pclath, cstack
  6378+                          ; Tracked objects:
  6379+                          ;		On entry : 0/0
  6380+                          ;		On exit  : 0/0
  6381+                          ;		Unchanged: 0/0
  6382+                          ; Data sizes:     COMMON   BANK0   BANK1   BANK3   BANK2
  6383+                          ;      Locals:         1       4       0       0       0
  6384+                          ;      Temp:     1
  6385+                          ;      Total:    5
  6386+                          ; This function calls:
  6387+                          ;		_lcd_goto_posi
  6388+                          ;		_lcd_put_hex
  6389+                          ; This function is called by:
  6390+                          ;		_main
  6391+                          ; This function uses a non-reentrant model
  6392+                          ; 
  6393+                          psect	text237
  6394+                          	file	"C:\Users\denjo\Documents\PIC\infrated_ray\lcd.c"
  6395+                          	line	286
  6396+                          	global	__size_of_lcd_put_ir_data
  6397+ 0031                     	__size_of_lcd_put_ir_data	equ	__end_of_lcd_put_ir_data-_lcd_put_ir_data
  6398+                          ;lcd.c: 285: void lcd_put_ir_data(unsigned char* ir_data, unsigned char size)
  6399+                          ;lcd.c: 286: {
  6400+                          	
  6401+ 0C3B                     _lcd_put_ir_data:	
  6402+                          	opt stack 6
  6403+                          ; Regs used in _lcd_put_ir_data: [wreg-fsr0h+status,2+status,0+pclath+cstack]
  6404+                          ;lcd_put_ir_data@ir_data stored from wreg
  6405+                          	line	290
  6406+ 0C3B  1283               	bcf	status, 5	;RP0=0, select bank0
  6407+ 0C3C  1303               	bcf	status, 6	;RP1=0, select bank0
  6408+ 0C3D  00A9               	movwf	(lcd_put_ir_data@ir_data)
  6409+                          	
  6410+ 0C3E                     l30002875:	
  6411+                          ;lcd.c: 287: unsigned char i;
  6412+                          ;lcd.c: 288: unsigned char ir_char;
  6413+                          ;lcd.c: 290: if (size > 0x00) {
  6414+ 0C3E  082C               	movf	(lcd_put_ir_data@size),w
  6415+ 0C3F  1D03               	skipz
  6416+ 0C40  2C42               	goto	u3020
  6417+ 0C41  2C6B               	goto	l254
  6418+ 0C42                     u3020:
  6419+                          	
  6420+ 0C42                     l30002876:	
  6421+                          	line	292
  6422+                          ;lcd.c: 292: lcd_goto_posi(0x40);
  6423+ 0C42  3040               	movlw	(040h)
  6424+ 0C43  120A  158A  24E7   	fcall	_lcd_goto_posi
      +       120A  158A         
  6425+                          	
  6426+ 0C48                     l30002877:	
  6427+                          	line	295
  6428+                          ;lcd.c: 295: for (i = 0; i < size; i++) {
  6429+ 0C48  1003               	clrc
  6430+ 0C49  3000               	movlw	0
  6431+ 0C4A  1803               	btfsc	status,0
  6432+ 0C4B  3001               	movlw	1
  6433+ 0C4C  1283               	bcf	status, 5	;RP0=0, select bank0
  6434+ 0C4D  1303               	bcf	status, 6	;RP1=0, select bank0
  6435  0C4E  00AB               	movwf	(lcd_put_ir_data@i)
  6436  0C4F  2C65               	goto	l30002882
  6437                           	
  6438  0C50                     l30002878:	
  6439                           	line	296
  6440                           ;lcd.c: 296: ir_char = *ir_data;
  6441  0C50  0829               	movf	(lcd_put_ir_data@ir_data),w
  6442  0C51  0084               	movwf	fsr0
  6443  0C52  1383               	bcf	status, 7	;select IRP bank0
  6444  0C53  0800               	movf	indf,w
  6445  0C54  00AA               	movwf	(lcd_put_ir_data@ir_char)
  6446                           	
  6447  0C55                     l30002879:	
  6448                           	line	297
  6449                           ;lcd.c: 297: lcd_put_hex(ir_char);
  6450  0C55  082A               	movf	(lcd_put_ir_data@ir_char),w
  6451  0C56  120A  158A  246C   	fcall	_lcd_put_hex
              120A  158A         
  6452                           	
  6453  0C5B                     l30002880:	
  6454                           	line	298
  6455                           ;lcd.c: 298: ir_data++;
  6456  0C5B  3001               	movlw	(01h)
  6457  0C5C  00F3               	movwf	(??_lcd_put_ir_data+0+0)
  6458  0C5D  0873               	movf	(??_lcd_put_ir_data+0+0),w
  6459  0C5E  1283               	bcf	status, 5	;RP0=0, select bank0
  6460  0C5F  1303               	bcf	status, 6	;RP1=0, select bank0
  6461  0C60  07A9               	addwf	(lcd_put_ir_data@ir_data),f
  6462                           	
  6463  0C61                     l30002881:	
  6464                           	line	295
  6465  0C61  3001               	movlw	(01h)
  6466  0C62  00F3               	movwf	(??_lcd_put_ir_data+0+0)
  6467  0C63  0873               	movf	(??_lcd_put_ir_data+0+0),w
  6468  0C64  07AB               	addwf	(lcd_put_ir_data@i),f
  6469                           	
  6470  0C65                     l30002882:	
  6471  0C65  082C               	movf	(lcd_put_ir_data@size),w
  6472  0C66  022B               	subwf	(lcd_put_ir_data@i),w
  6473  0C67  1C03               	skipc
  6474  0C68  2C6A               	goto	u3031
  6475  0C69  2C6B               	goto	u3030
  6476  0C6A                     u3031:
  6477  0C6A  2C50               	goto	l30002878
  6478  0C6B                     u3030:
  6479                           	
  6480  0C6B                     l254:	
  6481  0C6B  0008               	return
  6482                           	opt stack 0
  6483                           GLOBAL	__end_of_lcd_put_ir_data
  6484  0C6C                     	__end_of_lcd_put_ir_data:
  6485                           ; =============== function _lcd_put_ir_data ends ============
  6486                           
  6487                           psect	text238,local,class=CODE,delta=2
  6488                           global __ptext238
  6489  0B9B                     __ptext238:
  6490                           	line	302
  6491                           	signat	_lcd_put_ir_data,8312
  6492                           	global	_memset
  6493                           
  6494                           ; *************** function _memset *****************
  6495                           ; Defined at:
  6496                           ;		line 10 in file "C:\Program Files\HI-TECH Software\PICC\9.70\sources\memset.c"
  6497                           ; Parameters:    Size  Location     Type
  6498                           ;  p1              1    wreg     PTR void 
  6499                           ;		 -> rcv_data(8), pre_data(8), 
  6500                           ;  c               2    2[BANK0 ] int 
  6501                           ;  n               2    4[BANK0 ] unsigned int 
  6502                           ; Auto vars:     Size  Location     Type
  6503                           ;  p1              1    0[BANK0 ] PTR void 
  6504                           ;		 -> rcv_data(8), pre_data(8), 
  6505                           ;  p               1    1[BANK0 ] PTR unsigned char 
  6506                           ;		 -> rcv_data(8), pre_data(8), 
  6507                           ; Return value:  Size  Location     Type
  6508                           ;                  1    wreg      PTR void 
  6509                           ; Registers used:
  6510                           ;		wreg, fsr0l, fsr0h, status,2, status,0
  6511                           ; Tracked objects:
  6512                           ;		On entry : 0/0
  6513                           ;		On exit  : 0/0
  6514                           ;		Unchanged: 0/0
  6515                           ; Data sizes:     COMMON   BANK0   BANK1   BANK3   BANK2
  6516                           ;      Locals:         1       6       0       0       0
  6517                           ;      Temp:     1
  6518                           ;      Total:    7
  6519                           ; This function calls:
  6520                           ;		Nothing
  6521                           ; This function is called by:
  6522                           ;		_ir_recieve
  6523                           ;		_main
  6524                           ; This function uses a non-reentrant model
  6525                           ; 
  6526                           psect	text238
  6527                           	file	"C:\Program Files\HI-TECH Software\PICC\9.70\sources\memset.c"
  6528                           	line	10
  6529                           	global	__size_of_memset
  6530  0022                     	__size_of_memset	equ	__end_of_memset-_memset
  6531                           	
  6532  0B9B                     _memset:	
  6533                           	opt stack 5
  6534                           ; Regs used in _memset: [wreg-fsr0h+status,2+status,0]
  6535                           ;memset@p1 stored from wreg
  6536                           	line	18
  6537  0B9B  1283               	bcf	status, 5	;RP0=0, select bank0
  6538  0B9C  1303               	bcf	status, 6	;RP1=0, select bank0
  6539  0B9D  00A0               	movwf	(memset@p1)
  6540                           	
  6541  0B9E                     l30003125:	
  6542  0B9E  0820               	movf	(memset@p1),w
  6543  0B9F  00A1               	movwf	(memset@p)
  6544  0BA0  2BAC               	goto	l30003128
  6545                           	
  6546  0BA1                     l30003126:	
  6547                           	line	20
  6548  0BA1  0822               	movf	(memset@c),w
  6549  0BA2  00F0               	movwf	(??_memset+0+0)
  6550  0BA3  0821               	movf	(memset@p),w
  6551  0BA4  0084               	movwf	fsr0
  6552  0BA5  0870               	movf	(??_memset+0+0),w
  6553  0BA6  1383               	bcf	status, 7	;select IRP bank0
  6554  0BA7  0080               	movwf	indf
  6555                           	
  6556  0BA8                     l30003127:	
  6557  0BA8  3001               	movlw	(01h)
  6558  0BA9  00F0               	movwf	(??_memset+0+0)
  6559  0BAA  0870               	movf	(??_memset+0+0),w
  6560  0BAB  07A1               	addwf	(memset@p),f
  6561                           	
  6562  0BAC                     l30003128:	
  6563                           	line	19
  6564  0BAC  3001               	movlw	low(01h)
  6565  0BAD  02A4               	subwf	(memset@n),f
  6566  0BAE  3000               	movlw	high(01h)
  6567  0BAF  1C03               	skipc
  6568  0BB0  03A5               	decf	(memset@n+1),f
  6569  0BB1  02A5               	subwf	(memset@n+1),f
  6570  0BB2  30FF               	movlw	high(0FFFFh)
  6571  0BB3  0625               	xorwf	((memset@n+1))&07fh,w
  6572  0BB4  1D03               	skipz
  6573  0BB5  2BB8               	goto	u3745
  6574  0BB6  30FF               	movlw	low(0FFFFh)
  6575  0BB7  0624               	xorwf	((memset@n))&07fh,w
  6576  0BB8                     u3745:
  6577                           
  6578  0BB8  1D03               	skipz
  6579  0BB9  2BBB               	goto	u3741
  6580  0BBA  2BBC               	goto	u3740
  6581  0BBB                     u3741:
  6582  0BBB  2BA1               	goto	l30003126
  6583  0BBC                     u3740:
  6584                           	
  6585  0BBC                     l270:	
  6586  0BBC  0008               	return
  6587                           	opt stack 0
  6588                           GLOBAL	__end_of_memset
  6589  0BBD                     	__end_of_memset:
  6590                           ; =============== function _memset ends ============
  6591                           
  6592                           psect	text239,local,class=CODE,delta=2
  6593                           global __ptext239
  6594  0A89                     __ptext239:
  6595                           	line	22
  6596                           	signat	_memset,12409
  6597                           	global	_Timer_Reset
  6598                           
  6599                           ; *************** function _Timer_Reset *****************
  6600                           ; Defined at:
  6601                           ;		line 30 in file "C:\Users\denjo\Documents\PIC\infrated_ray\ir_in.c"
  6602                           ; Parameters:    Size  Location     Type
  6603                           ;		None
  6604                           ; Auto vars:     Size  Location     Type
  6605                           ;		None
  6606                           ; Return value:  Size  Location     Type
  6607                           ;		None               void
  6608                           ; Registers used:
  6609                           ;		wreg, status,2, status,0
  6610                           ; Tracked objects:
  6611                           ;		On entry : 0/0
  6612                           ;		On exit  : 0/0
  6613                           ;		Unchanged: 0/0
  6614                           ; Data sizes:     COMMON   BANK0   BANK1   BANK3   BANK2
  6615                           ;      Locals:         0       0       0       0       0
  6616                           ;      Temp:     0
  6617                           ;      Total:    0
  6618                           ; This function calls:
  6619                           ;		Nothing
  6620                           ; This function is called by:
  6621                           ;		_ir_recieve
  6622                           ; This function uses a non-reentrant model
  6623                           ; 
  6624                           psect	text239
  6625                           	file	"C:\Users\denjo\Documents\PIC\infrated_ray\ir_in.c"
  6626                           	line	30
  6627                           	global	__size_of_Timer_Reset
  6628  0011                     	__size_of_Timer_Reset	equ	__end_of_Timer_Reset-_Timer_Reset
  6629                           ;pic16f887.h: 19: volatile unsigned char INDF @ 0x000;
  6630                           ;pic16f887.h: 20: volatile unsigned char TMR0 @ 0x001;
  6631                           ;pic16f887.h: 21: volatile unsigned char PCL @ 0x002;
  6632                           ;pic16f887.h: 22: volatile unsigned char STATUS @ 0x003;
  6633                           ;pic16f887.h: 23: unsigned char FSR @ 0x004;
  6634                           ;pic16f887.h: 24: volatile unsigned char PORTA @ 0x005;
  6635                           ;pic16f887.h: 25: volatile unsigned char PORTB @ 0x006;
  6636                           ;pic16f887.h: 26: volatile unsigned char PORTC @ 0x007;
  6637                           ;pic16f887.h: 30: volatile unsigned char PORTE @ 0x009;
  6638                           ;pic16f887.h: 31: volatile unsigned char PCLATH @ 0x00A;
  6639                           	
  6640  0A89                     _Timer_Reset:	
  6641                           	opt stack 5
  6642                           ; Regs used in _Timer_Reset: [wreg+status,2+status,0]
  6643                           	line	31
  6644                           	
  6645  0A89                     l30003129:	
  6646                           ;ir_in.c: 31: TMR1L = 0;
  6647  0A89  1003               	clrc
  6648  0A8A  3000               	movlw	0
  6649  0A8B  1803               	btfsc	status,0
  6650  0A8C  3001               	movlw	1
  6651  0A8D  1283               	bcf	status, 5	;RP0=0, select bank0
  6652  0A8E  1303               	bcf	status, 6	;RP1=0, select bank0
  6653  0A8F  008E               	movwf	(14)	;volatile
  6654                           	line	32
  6655                           ;ir_in.c: 32: TMR1H = 0;
  6656  0A90  1003               	clrc
  6657  0A91  3000               	movlw	0
  6658  0A92  1803               	btfsc	status,0
  6659  0A93  3001               	movlw	1
  6660  0A94  008F               	movwf	(15)	;volatile
  6661                           	
  6662  0A95                     l30003130:	
  6663                           	line	33
  6664                           ;ir_in.c: 33: TMR1IF = 0;
  6665  0A95  100C               	bcf	(96/8),(96)&7
  6666                           	
  6667  0A96                     l30003131:	
  6668                           	line	34
  6669                           ;ir_in.c: 34: TMR1IE = 1;
  6670  0A96  1683               	bsf	status, 5	;RP0=1, select bank1
  6671  0A97  1303               	bcf	status, 6	;RP1=0, select bank1
  6672  0A98  140C               	bsf	(1120/8)^080h,(1120)&7
  6673                           	
  6674  0A99                     l2:	
  6675  0A99  0008               	return
  6676                           	opt stack 0
  6677                           GLOBAL	__end_of_Timer_Reset
  6678  0A9A                     	__end_of_Timer_Reset:
  6679                           ; =============== function _Timer_Reset ends ============
  6680                           
  6681                           psect	text240,local,class=CODE,delta=2
  6682                           global __ptext240
  6683  0CE7                     __ptext240:
  6684                           	line	36
  6685                           	signat	_Timer_Reset,88
  6686                           	global	_lcd_goto_posi
  6687                           
  6688                           ; *************** function _lcd_goto_posi *****************
  6689                           ; Defined at:
  6690                           ;		line 150 in file "C:\Users\denjo\Documents\PIC\infrated_ray\lcd.c"
  6691                           ; Parameters:    Size  Location     Type
  6692                           ;  addr            1    wreg     unsigned char 
  6693                           ; Auto vars:     Size  Location     Type
  6694                           ;  addr            1    1[COMMON] unsigned char 
  6695                           ;  temp            1    2[COMMON] unsigned char 
  6696                           ; Return value:  Size  Location     Type
  6697                           ;		None               void
  6698                           ; Registers used:
  6699                           ;		wreg, status,2, status,0, pclath, cstack
  6700                           ; Tracked objects:
  6701                           ;		On entry : 0/0
  6702                           ;		On exit  : 0/0
  6703                           ;		Unchanged: 0/0
  6704                           ; Data sizes:     COMMON   BANK0   BANK1   BANK3   BANK2
  6705                           ;      Locals:         3       0       0       0       0
  6706                           ;      Temp:     1
  6707                           ;      Total:    3
  6708                           ; This function calls:
  6709                           ;		_toggle_E
  6710                           ;		__delay
  6711                           ; This function is called by:
  6712                           ;		_lcd_put_ir_format
  6713                           ;		_lcd_put_ir_data
  6714                           ; This function uses a non-reentrant model
  6715                           ; 
  6716                           psect	text240
  6717                           	file	"C:\Users\denjo\Documents\PIC\infrated_ray\lcd.c"
  6718                           	line	150
  6719                           	global	__size_of_lcd_goto_posi
  6720  0042                     	__size_of_lcd_goto_posi	equ	__end_of_lcd_goto_posi-_lcd_goto_posi
  6721                           ;lcd.c: 149: void lcd_goto_posi(unsigned char addr)
  6722                           ;lcd.c: 150: {
  6723                           	
  6724  0CE7                     _lcd_goto_posi:	
  6725                           	opt stack 5
  6726                           ; Regs used in _lcd_goto_posi: [wreg+status,2+status,0+pclath+cstack]
  6727                           ;lcd_goto_posi@addr stored from wreg
  6728                           	line	153
  6729  0CE7  00F1               	movwf	(lcd_goto_posi@addr)
  6730                           	
  6731  0CE8                     l30002861:	
  6732                           ;lcd.c: 151: unsigned char temp;
  6733                           ;lcd.c: 153: temp = (addr & 0xF0);
  6734  0CE8  0871               	movf	(lcd_goto_posi@addr),w
  6735  0CE9  39F0               	andlw	0F0h
  6736  0CEA  00F2               	movwf	(lcd_goto_posi@temp)
  6737                           	
  6738  0CEB                     l30002862:	
  6739                           	line	154
  6740                           ;lcd.c: 154: temp = (temp >> 2);
  6741  0CEB  0872               	movf	(lcd_goto_posi@temp),w
  6742  0CEC  00F0               	movwf	(??_lcd_goto_posi+0+0)
  6743  0CED  3002               	movlw	02h
  6744  0CEE                     u3005:
  6745  0CEE  1003               	clrc
  6746  0CEF  0CF0               	rrf	(??_lcd_goto_posi+0+0),f
  6747  0CF0  3EFF               	addlw	-1
  6748  0CF1  1D03               	skipz
  6749  0CF2  2CEE               	goto	u3005
  6750  0CF3  0870               	movf	0+(??_lcd_goto_posi+0+0),w
  6751  0CF4  00F2               	movwf	(lcd_goto_posi@temp)
  6752                           	
  6753  0CF5                     l30002863:	
  6754                           	line	155
  6755                           ;lcd.c: 155: temp |= 0x20;
  6756  0CF5  16F2               	bsf	(lcd_goto_posi@temp)+(5/8),(5)&7
  6757                           	
  6758  0CF6                     l30002864:	
  6759                           	line	156
  6760                           ;lcd.c: 156: PORTC &= 0xC3;
  6761  0CF6  30C3               	movlw	(0C3h)
  6762  0CF7  00F0               	movwf	(??_lcd_goto_posi+0+0)
  6763  0CF8  0870               	movf	(??_lcd_goto_posi+0+0),w
  6764  0CF9  1283               	bcf	status, 5	;RP0=0, select bank0
  6765  0CFA  1303               	bcf	status, 6	;RP1=0, select bank0
  6766  0CFB  0587               	andwf	(7),f	;volatile
  6767                           	
  6768  0CFC                     l30002865:	
  6769                           	line	157
  6770                           ;lcd.c: 157: RA4 = 0;
  6771  0CFC  1205               	bcf	(44/8),(44)&7
  6772                           	
  6773  0CFD                     l30002866:	
  6774                           	line	158
  6775                           ;lcd.c: 158: PORTC |= temp;
  6776  0CFD  0872               	movf	(lcd_goto_posi@temp),w
  6777  0CFE  00F0               	movwf	(??_lcd_goto_posi+0+0)
  6778  0CFF  0870               	movf	(??_lcd_goto_posi+0+0),w
  6779  0D00  0487               	iorwf	(7),f	;volatile
  6780                           	
  6781  0D01                     l30002867:	
  6782                           	line	159
  6783                           ;lcd.c: 159: toggle_E();
  6784  0D01  120A  158A  2219   	fcall	_toggle_E
              120A  158A         
  6785                           	
  6786  0D06                     l30002868:	
  6787                           	line	160
  6788                           ;lcd.c: 160: temp = (addr & 0x0F);
  6789  0D06  0871               	movf	(lcd_goto_posi@addr),w
  6790  0D07  390F               	andlw	0Fh
  6791  0D08  00F2               	movwf	(lcd_goto_posi@temp)
  6792                           	
  6793  0D09                     l30002869:	
  6794                           	line	161
  6795                           ;lcd.c: 161: temp = (temp << 2);
  6796  0D09  0872               	movf	(lcd_goto_posi@temp),w
  6797  0D0A  00F0               	movwf	(??_lcd_goto_posi+0+0)
  6798  0D0B  3001               	movlw	(02h)-1
  6799  0D0C                     u3015:
  6800  0D0C  1003               	clrc
  6801  0D0D  0DF0               	rlf	(??_lcd_goto_posi+0+0),f
  6802  0D0E  3EFF               	addlw	-1
  6803  0D0F  1D03               	skipz
  6804  0D10  2D0C               	goto	u3015
  6805  0D11  1003               	clrc
  6806  0D12  0D70               	rlf	(??_lcd_goto_posi+0+0),w
  6807  0D13  00F2               	movwf	(lcd_goto_posi@temp)
  6808                           	
  6809  0D14                     l30002870:	
  6810                           	line	162
  6811                           ;lcd.c: 162: PORTC &= 0xC3;
  6812  0D14  30C3               	movlw	(0C3h)
  6813  0D15  00F0               	movwf	(??_lcd_goto_posi+0+0)
  6814  0D16  0870               	movf	(??_lcd_goto_posi+0+0),w
  6815  0D17  1283               	bcf	status, 5	;RP0=0, select bank0
  6816  0D18  1303               	bcf	status, 6	;RP1=0, select bank0
  6817  0D19  0587               	andwf	(7),f	;volatile
  6818                           	
  6819  0D1A                     l30002871:	
  6820                           	line	163
  6821                           ;lcd.c: 163: RA4 = 0;
  6822  0D1A  1205               	bcf	(44/8),(44)&7
  6823                           	
  6824  0D1B                     l30002872:	
  6825                           	line	164
  6826                           ;lcd.c: 164: PORTC |= temp;
  6827  0D1B  0872               	movf	(lcd_goto_posi@temp),w
  6828  0D1C  00F0               	movwf	(??_lcd_goto_posi+0+0)
  6829  0D1D  0870               	movf	(??_lcd_goto_posi+0+0),w
  6830  0D1E  0487               	iorwf	(7),f	;volatile
  6831                           	line	165
  6832                           ;lcd.c: 165: toggle_E();
  6833  0D1F  120A  158A  2219   	fcall	_toggle_E
              120A  158A         
  6834                           	
  6835  0D24                     l30002873:	
  6836                           	line	166
  6837                           ;lcd.c: 166: _delay((unsigned long)((40)*(4000000/4000000.0)));
  6838  0D24  300D               	movlw	13
  6839  0D25  00F0               movwf	(??_lcd_goto_posi+0+0),f
  6840  0D26                     u3997:
  6841  0D26  0BF0               decfsz	(??_lcd_goto_posi+0+0),f
  6842  0D27  2D26               	goto	u3997
  6843                           
  6844                           	
  6845  0D28                     l234:	
  6846  0D28  0008               	return
  6847                           	opt stack 0
  6848                           GLOBAL	__end_of_lcd_goto_posi
  6849  0D29                     	__end_of_lcd_goto_posi:
  6850                           ; =============== function _lcd_goto_posi ends ============
  6851                           
  6852                           psect	text241,local,class=CODE,delta=2
  6853                           global __ptext241
  6854  0DE9                     __ptext241:
  6855                           	line	169
  6856                           	signat	_lcd_goto_posi,4216
  6857                           	global	_IR_NEC_format
  6858                           
  6859                           ; *************** function _IR_NEC_format *****************
  6860                           ; Defined at:
  6861                           ;		line 100 in file "C:\Users\denjo\Documents\PIC\infrated_ray\ir_out.c"
  6862                           ; Parameters:    Size  Location     Type
  6863                           ;  tbl_p           2    6[BANK0 ] PTR unsigned char 
  6864                           ;		 -> eep_rdata(28), ir_func1_code_tbl(96), ir_func2_code_tbl(96), ir_func3_code_tbl(96
                                 ), 
  6865                           ;		 -> ir_func4_code_tbl(96), 
  6866                           ; Auto vars:     Size  Location     Type
  6867                           ;  j               1    4[BANK0 ] unsigned char 
  6868                           ;  i               1    5[BANK0 ] unsigned char 
  6869                           ; Return value:  Size  Location     Type
  6870                           ;		None               void
  6871                           ; Registers used:
  6872                           ;		wreg, fsr0l, fsr0h, status,2, status,0, pclath, cstack
  6873                           ; Tracked objects:
  6874                           ;		On entry : 0/0
  6875                           ;		On exit  : 0/0
  6876                           ;		Unchanged: 0/0
  6877                           ; Data sizes:     COMMON   BANK0   BANK1   BANK3   BANK2
  6878                           ;      Locals:         4       4       0       0       0
  6879                           ;      Temp:     4
  6880                           ;      Total:    8
  6881                           ; This function calls:
  6882                           ;		_IR_NEC_ReaderCode_Send
  6883                           ;		_IR_NEC_DataCode_BitOn_Send
  6884                           ;		_IR_NEC_DataCode_BitOff_Send
  6885                           ;		_IR_NEC_DataCode_StopBit_Send
  6886                           ;		__delay
  6887                           ; This function is called by:
  6888                           ;		_main
  6889                           ;		_ir_out_start
  6890                           ; This function uses a non-reentrant model
  6891                           ; 
  6892                           psect	text241
  6893                           	file	"C:\Users\denjo\Documents\PIC\infrated_ray\ir_out.c"
  6894                           	line	100
  6895                           	global	__size_of_IR_NEC_format
  6896  0060                     	__size_of_IR_NEC_format	equ	__end_of_IR_NEC_format-_IR_NEC_format
  6897                           ;ir_out.c: 99: void IR_NEC_format(unsigned char* tbl_p)
  6898                           ;ir_out.c: 100: {
  6899                           	
  6900  0DE9                     _IR_NEC_format:	
  6901                           	opt stack 5
  6902                           ; Regs used in _IR_NEC_format: [wreg-fsr0h+status,2+status,0+pclath+cstack]
  6903                           	line	104
  6904                           	
  6905  0DE9                     l30003133:	
  6906                           ;ir_out.c: 101: unsigned char i, j;
  6907                           ;ir_out.c: 104: IR_NEC_ReaderCode_Send();
  6908  0DE9  120A  158A  237E   	fcall	_IR_NEC_ReaderCode_Send
              120A  158A         
  6909                           	
  6910  0DEE                     l30003134:	
  6911                           	line	107
  6912                           ;ir_out.c: 107: for (i=0;i<0x04;i++)
  6913  0DEE  1003               	clrc
  6914  0DEF  3000               	movlw	0
  6915  0DF0  1803               	btfsc	status,0
  6916  0DF1  3001               	movlw	1
  6917  0DF2  1283               	bcf	status, 5	;RP0=0, select bank0
  6918  0DF3  1303               	bcf	status, 6	;RP1=0, select bank0
  6919  0DF4  00A5               	movwf	(IR_NEC_format@i)
  6920                           	
  6921  0DF5                     l30003137:	
  6922                           	line	110
  6923                           ;ir_out.c: 108: {
  6924                           ;ir_out.c: 110: for(j=0;j<0x08;j++)
  6925  0DF5  1003               	clrc
  6926  0DF6  3000               	movlw	0
  6927  0DF7  1803               	btfsc	status,0
  6928  0DF8  3001               	movlw	1
  6929  0DF9  00A4               	movwf	(IR_NEC_format@j)
  6930                           	
  6931  0DFA                     l30003140:	
  6932                           	line	113
  6933                           ;ir_out.c: 111: {
  6934                           ;ir_out.c: 113: if (*(tbl_p + i) & (0x80 >> j)) {
  6935  0DFA  0827               	movf	(IR_NEC_format@tbl_p+1),w
  6936  0DFB  00F3               	movwf	(??_IR_NEC_format+0+0+1)
  6937  0DFC  0826               	movf	(IR_NEC_format@tbl_p),w
  6938  0DFD  00F2               	movwf	(??_IR_NEC_format+0+0)
  6939  0DFE  0825               	movf	(IR_NEC_format@i),w
  6940  0DFF  0772               	addwf	(??_IR_NEC_format+0+0),w
  6941  0E00  0084               	movwf	fsr0
  6942  0E01  0873               	movf	(??_IR_NEC_format+0+1),w
  6943  0E02  1803               	skipnc
  6944  0E03  0A73               	incf	(??_IR_NEC_format+0+1),w
  6945                           	FNCALL _IR_NEC_format,stringtab
  6946  0E04  120A  158A  2200   	fcall	stringtab
              120A  158A         
  6947  0E09  00F4               	movwf	(??_IR_NEC_format+2+0)
  6948  0E0A  3080               	movlw	(080h)
  6949  0E0B  00F5               	movwf	(??_IR_NEC_format+3+0)
  6950  0E0C  0A24               	incf	(IR_NEC_format@j),w
  6951  0E0D  2E10               	goto	u3754
  6952  0E0E                     u3755:
  6953  0E0E  1003               	clrc
  6954  0E0F  0CF5               	rrf	(??_IR_NEC_format+3+0),f
  6955  0E10                     u3754:
  6956  0E10  3EFF               	addlw	-1
  6957  0E11  1D03               	skipz
  6958  0E12  2E0E               	goto	u3755
  6959  0E13  0875               	movf	0+(??_IR_NEC_format+3+0),w
  6960  0E14  0574               	andwf	(??_IR_NEC_format+2+0),w
  6961  0E15  1903               	btfsc	status,2
  6962  0E16  2E18               	goto	u3761
  6963  0E17  2E19               	goto	u3760
  6964  0E18                     u3761:
  6965  0E18  2E1F               	goto	l30003142
  6966  0E19                     u3760:
  6967                           	
  6968  0E19                     l30003141:	
  6969                           	line	114
  6970                           ;ir_out.c: 114: IR_NEC_DataCode_BitOn_Send();
  6971  0E19  120A  158A  2348   	fcall	_IR_NEC_DataCode_BitOn_Send
              120A  158A         
  6972  0E1E  2E24               	goto	l30003143
  6973                           	
  6974  0E1F                     l30003142:	
  6975                           	line	118
  6976                           ;ir_out.c: 117: else {
  6977                           ;ir_out.c: 118: IR_NEC_DataCode_BitOff_Send();
  6978  0E1F  120A  158A  22E6   	fcall	_IR_NEC_DataCode_BitOff_Send
              120A  158A         
  6979                           	
  6980  0E24                     l30003143:	
  6981                           	line	110
  6982  0E24  3001               	movlw	(01h)
  6983  0E25  00F2               	movwf	(??_IR_NEC_format+0+0)
  6984  0E26  0872               	movf	(??_IR_NEC_format+0+0),w
  6985  0E27  1283               	bcf	status, 5	;RP0=0, select bank0
  6986  0E28  1303               	bcf	status, 6	;RP1=0, select bank0
  6987  0E29  07A4               	addwf	(IR_NEC_format@j),f
  6988                           	
  6989  0E2A                     l30003144:	
  6990  0E2A  3008               	movlw	(08h)
  6991  0E2B  0224               	subwf	(IR_NEC_format@j),w
  6992  0E2C  1C03               	skipc
  6993  0E2D  2E2F               	goto	u3771
  6994  0E2E  2E30               	goto	u3770
  6995  0E2F                     u3771:
  6996  0E2F  2DFA               	goto	l30003140
  6997  0E30                     u3770:
  6998                           	
  6999  0E30                     l30003145:	
  7000                           	line	107
  7001  0E30  3001               	movlw	(01h)
  7002  0E31  00F2               	movwf	(??_IR_NEC_format+0+0)
  7003  0E32  0872               	movf	(??_IR_NEC_format+0+0),w
  7004  0E33  07A5               	addwf	(IR_NEC_format@i),f
  7005                           	
  7006  0E34                     l30003146:	
  7007  0E34  3004               	movlw	(04h)
  7008  0E35  0225               	subwf	(IR_NEC_format@i),w
  7009  0E36  1C03               	skipc
  7010  0E37  2E39               	goto	u3781
  7011  0E38  2E3A               	goto	u3780
  7012  0E39                     u3781:
  7013  0E39  2DF5               	goto	l30003137
  7014  0E3A                     u3780:
  7015                           	
  7016  0E3A                     l30003147:	
  7017                           	line	123
  7018                           ;ir_out.c: 119: }
  7019                           ;ir_out.c: 120: }
  7020                           ;ir_out.c: 121: }
  7021                           ;ir_out.c: 123: IR_NEC_DataCode_StopBit_Send();
  7022  0E3A  120A  158A  22AB   	fcall	_IR_NEC_DataCode_StopBit_Send
              120A  158A         
  7023                           	
  7024  0E3F                     l30003148:	
  7025                           	line	125
  7026                           ;ir_out.c: 125: _delay((unsigned long)((28)*(4000000/4000.0)));
  7027  0E3F  3025               	movlw	37
  7028  0E40  00F3               movwf	(??_IR_NEC_format+0+0+1),f
  7029  0E41  305B               	movlw	91
  7030  0E42  00F2               movwf	(??_IR_NEC_format+0+0),f
  7031  0E43                     u4007:
  7032  0E43  0BF2               	decfsz	(??_IR_NEC_format+0+0),f
  7033  0E44  2E43               	goto	u4007
  7034  0E45  0BF3               	decfsz	(??_IR_NEC_format+0+0+1),f
  7035  0E46  2E43               	goto	u4007
  7036  0E47  2E48               	nop2
  7037                           
  7038                           	
  7039  0E48                     l201:	
  7040  0E48  0008               	return
  7041                           	opt stack 0
  7042                           GLOBAL	__end_of_IR_NEC_format
  7043  0E49                     	__end_of_IR_NEC_format:
  7044                           ; =============== function _IR_NEC_format ends ============
  7045                           
  7046                           psect	text242,local,class=CODE,delta=2
  7047                           global __ptext242
  7048  0F09                     __ptext242:
  7049                           	line	128
  7050                           	signat	_IR_NEC_format,4216
  7051                           	global	_IR_KDN_format
  7052                           
  7053                           ; *************** function _IR_KDN_format *****************
  7054                           ; Defined at:
  7055                           ;		line 214 in file "C:\Users\denjo\Documents\PIC\infrated_ray\ir_out.c"
  7056                           ; Parameters:    Size  Location     Type
  7057                           ;  tbl_p           2    8[BANK0 ] PTR unsigned char 
  7058                           ;		 -> eep_rdata(28), ir_func1_code_tbl(96), ir_func2_code_tbl(96), ir_func3_code_tbl(96
                                 ), 
  7059                           ;		 -> ir_func4_code_tbl(96), 
  7060                           ; Auto vars:     Size  Location     Type
  7061                           ;  j               1    2[COMMON] unsigned char 
  7062                           ;  i               1    3[COMMON] unsigned char 
  7063                           ; Return value:  Size  Location     Type
  7064                           ;		None               void
  7065                           ; Registers used:
  7066                           ;		wreg, fsr0l, fsr0h, status,2, status,0, pclath, cstack
  7067                           ; Tracked objects:
  7068                           ;		On entry : 0/0
  7069                           ;		On exit  : 0/0
  7070                           ;		Unchanged: 0/0
  7071                           ; Data sizes:     COMMON   BANK0   BANK1   BANK3   BANK2
  7072                           ;      Locals:         2       6       0       0       0
  7073                           ;      Temp:     4
  7074                           ;      Total:    8
  7075                           ; This function calls:
  7076                           ;		_IR_KDN_ReaderCode_Send
  7077                           ;		_IR_KDN_DataCode_BitOn_Send
  7078                           ;		_IR_KDN_DataCode_BitOff_Send
  7079                           ;		_IR_KDN_DataCode_StopBit_Send
  7080                           ;		__delay
  7081                           ; This function is called by:
  7082                           ;		_main
  7083                           ;		_ir_out_start
  7084                           ; This function uses a non-reentrant model
  7085                           ; 
  7086                           psect	text242
  7087                           	file	"C:\Users\denjo\Documents\PIC\infrated_ray\ir_out.c"
  7088                           	line	214
  7089                           	global	__size_of_IR_KDN_format
  7090  0062                     	__size_of_IR_KDN_format	equ	__end_of_IR_KDN_format-_IR_KDN_format
  7091                           ;ir_out.c: 213: void IR_KDN_format(unsigned char* tbl_p)
  7092                           ;ir_out.c: 214: {
  7093                           	
  7094  0F09                     _IR_KDN_format:	
  7095                           	opt stack 5
  7096                           ; Regs used in _IR_KDN_format: [wreg-fsr0h+status,2+status,0+pclath+cstack]
  7097                           	line	218
  7098                           	
  7099  0F09                     l30002683:	
  7100                           ;ir_out.c: 215: unsigned char i, j;
  7101                           ;ir_out.c: 218: IR_KDN_ReaderCode_Send();
  7102  0F09  120A  158A  2362   	fcall	_IR_KDN_ReaderCode_Send
              120A  158A         
  7103                           	
  7104  0F0E                     l30002684:	
  7105                           	line	221
  7106                           ;ir_out.c: 221: for (i=0;i<0x06;i++)
  7107  0F0E  1003               	clrc
  7108  0F0F  3000               	movlw	0
  7109  0F10  1803               	btfsc	status,0
  7110  0F11  3001               	movlw	1
  7111  0F12  00F3               	movwf	(IR_KDN_format@i)
  7112                           	
  7113  0F13                     l30002687:	
  7114                           	line	224
  7115                           ;ir_out.c: 222: {
  7116                           ;ir_out.c: 224: for(j=0;j<0x08;j++)
  7117  0F13  1003               	clrc
  7118  0F14  3000               	movlw	0
  7119  0F15  1803               	btfsc	status,0
  7120  0F16  3001               	movlw	1
  7121  0F17  00F2               	movwf	(IR_KDN_format@j)
  7122                           	
  7123  0F18                     l30002690:	
  7124                           	line	227
  7125                           ;ir_out.c: 225: {
  7126                           ;ir_out.c: 227: if (*(tbl_p + i) & (0x80 >> j)) {
  7127  0F18  1283               	bcf	status, 5	;RP0=0, select bank0
  7128  0F19  1303               	bcf	status, 6	;RP1=0, select bank0
  7129  0F1A  0829               	movf	(IR_KDN_format@tbl_p+1),w
  7130  0F1B  00A5               	movwf	(??_IR_KDN_format+0+0+1)
  7131  0F1C  0828               	movf	(IR_KDN_format@tbl_p),w
  7132  0F1D  00A4               	movwf	(??_IR_KDN_format+0+0)
  7133  0F1E  0873               	movf	(IR_KDN_format@i),w
  7134  0F1F  0724               	addwf	(??_IR_KDN_format+0+0),w
  7135  0F20  0084               	movwf	fsr0
  7136  0F21  0825               	movf	(??_IR_KDN_format+0+1),w
  7137  0F22  1803               	skipnc
  7138  0F23  0A25               	incf	(??_IR_KDN_format+0+1),w
  7139                           	FNCALL _IR_KDN_format,stringtab
  7140  0F24  120A  158A  2200   	fcall	stringtab
              120A  158A         
  7141  0F29  00A6               	movwf	(??_IR_KDN_format+2+0)
  7142  0F2A  3080               	movlw	(080h)
  7143  0F2B  00A7               	movwf	(??_IR_KDN_format+3+0)
  7144  0F2C  0A72               	incf	(IR_KDN_format@j),w
  7145  0F2D  2F30               	goto	u2534
  7146  0F2E                     u2535:
  7147  0F2E  1003               	clrc
  7148  0F2F  0CA7               	rrf	(??_IR_KDN_format+3+0),f
  7149  0F30                     u2534:
  7150  0F30  3EFF               	addlw	-1
  7151  0F31  1D03               	skipz
  7152  0F32  2F2E               	goto	u2535
  7153  0F33  0827               	movf	0+(??_IR_KDN_format+3+0),w
  7154  0F34  0526               	andwf	(??_IR_KDN_format+2+0),w
  7155  0F35  1903               	btfsc	status,2
  7156  0F36  2F38               	goto	u2541
  7157  0F37  2F39               	goto	u2540
  7158  0F38                     u2541:
  7159  0F38  2F3F               	goto	l30002692
  7160  0F39                     u2540:
  7161                           	
  7162  0F39                     l30002691:	
  7163                           	line	228
  7164                           ;ir_out.c: 228: IR_KDN_DataCode_BitOn_Send();
  7165  0F39  120A  158A  22FD   	fcall	_IR_KDN_DataCode_BitOn_Send
              120A  158A         
  7166  0F3E  2F44               	goto	l30002693
  7167                           	
  7168  0F3F                     l30002692:	
  7169                           	line	232
  7170                           ;ir_out.c: 231: else {
  7171                           ;ir_out.c: 232: IR_KDN_DataCode_BitOff_Send();
  7172  0F3F  120A  158A  22CF   	fcall	_IR_KDN_DataCode_BitOff_Send
              120A  158A         
  7173                           	
  7174  0F44                     l30002693:	
  7175                           	line	224
  7176  0F44  3001               	movlw	(01h)
  7177  0F45  1283               	bcf	status, 5	;RP0=0, select bank0
  7178  0F46  1303               	bcf	status, 6	;RP1=0, select bank0
  7179  0F47  00A4               	movwf	(??_IR_KDN_format+0+0)
  7180  0F48  0824               	movf	(??_IR_KDN_format+0+0),w
  7181  0F49  07F2               	addwf	(IR_KDN_format@j),f
  7182                           	
  7183  0F4A                     l30002694:	
  7184  0F4A  3008               	movlw	(08h)
  7185  0F4B  0272               	subwf	(IR_KDN_format@j),w
  7186  0F4C  1C03               	skipc
  7187  0F4D  2F4F               	goto	u2551
  7188  0F4E  2F50               	goto	u2550
  7189  0F4F                     u2551:
  7190  0F4F  2F18               	goto	l30002690
  7191  0F50                     u2550:
  7192                           	
  7193  0F50                     l30002695:	
  7194                           	line	221
  7195  0F50  3001               	movlw	(01h)
  7196  0F51  00A4               	movwf	(??_IR_KDN_format+0+0)
  7197  0F52  0824               	movf	(??_IR_KDN_format+0+0),w
  7198  0F53  07F3               	addwf	(IR_KDN_format@i),f
  7199                           	
  7200  0F54                     l30002696:	
  7201  0F54  3006               	movlw	(06h)
  7202  0F55  0273               	subwf	(IR_KDN_format@i),w
  7203  0F56  1C03               	skipc
  7204  0F57  2F59               	goto	u2561
  7205  0F58  2F5A               	goto	u2560
  7206  0F59                     u2561:
  7207  0F59  2F13               	goto	l30002687
  7208  0F5A                     u2560:
  7209                           	
  7210  0F5A                     l30002697:	
  7211                           	line	237
  7212                           ;ir_out.c: 233: }
  7213                           ;ir_out.c: 234: }
  7214                           ;ir_out.c: 235: }
  7215                           ;ir_out.c: 237: IR_KDN_DataCode_StopBit_Send();
  7216  0F5A  120A  158A  22BD   	fcall	_IR_KDN_DataCode_StopBit_Send
              120A  158A         
  7217                           	
  7218  0F5F                     l30002698:	
  7219                           	line	239
  7220                           ;ir_out.c: 239: _delay((unsigned long)((63)*(4000000/4000.0)));
  7221  0F5F  3052               	movlw	82
  7222  0F60  1283               	bcf	status, 5	;RP0=0, select bank0
  7223  0F61  1303               	bcf	status, 6	;RP1=0, select bank0
  7224  0F62  00A5               movwf	(??_IR_KDN_format+0+0+1),f
  7225  0F63  30D0               	movlw	208
  7226  0F64  00A4               movwf	(??_IR_KDN_format+0+0),f
  7227  0F65                     u4017:
  7228  0F65  0BA4               	decfsz	(??_IR_KDN_format+0+0),f
  7229  0F66  2F65               	goto	u4017
  7230  0F67  0BA5               	decfsz	(??_IR_KDN_format+0+0+1),f
  7231  0F68  2F65               	goto	u4017
  7232  0F69  0064               	clrwdt
  7233                           
  7234                           	
  7235  0F6A                     l214:	
  7236  0F6A  0008               	return
  7237                           	opt stack 0
  7238                           GLOBAL	__end_of_IR_KDN_format
  7239  0F6B                     	__end_of_IR_KDN_format:
  7240                           ; =============== function _IR_KDN_format ends ============
  7241                           
  7242                           psect	text243,local,class=CODE,delta=2
  7243                           global __ptext243
  7244  0C6C                     __ptext243:
  7245                           	line	242
  7246                           	signat	_IR_KDN_format,4216
  7247                           	global	_lcd_put_hex
  7248                           
  7249                           ; *************** function _lcd_put_hex *****************
  7250                           ; Defined at:
  7251                           ;		line 208 in file "C:\Users\denjo\Documents\PIC\infrated_ray\lcd.c"
  7252                           ; Parameters:    Size  Location     Type
  7253                           ;  data            1    wreg     unsigned char 
  7254                           ; Auto vars:     Size  Location     Type
  7255                           ;  data            1    6[BANK0 ] unsigned char 
  7256                           ;  hi              1    8[BANK0 ] unsigned char 
  7257                           ;  lo              1    7[BANK0 ] unsigned char 
  7258                           ; Return value:  Size  Location     Type
  7259                           ;		None               void
  7260                           ; Registers used:
  7261                           ;		wreg, status,2, status,0, pclath, cstack
  7262                           ; Tracked objects:
  7263                           ;		On entry : 0/0
  7264                           ;		On exit  : 0/0
  7265                           ;		Unchanged: 0/0
  7266                           ; Data sizes:     COMMON   BANK0   BANK1   BANK3   BANK2
  7267                           ;      Locals:         1       3       0       0       0
  7268                           ;      Temp:     1
  7269                           ;      Total:    4
  7270                           ; This function calls:
  7271                           ;		_lcd_put_char
  7272                           ; This function is called by:
  7273                           ;		_lcd_put_ir_data
  7274                           ; This function uses a non-reentrant model
  7275                           ; 
  7276                           psect	text243
  7277                           	file	"C:\Users\denjo\Documents\PIC\infrated_ray\lcd.c"
  7278                           	line	208
  7279                           	global	__size_of_lcd_put_hex
  7280  003A                     	__size_of_lcd_put_hex	equ	__end_of_lcd_put_hex-_lcd_put_hex
  7281                           ;lcd.c: 207: void lcd_put_hex(unsigned char data)
  7282                           ;lcd.c: 208: {
  7283                           	
  7284  0C6C                     _lcd_put_hex:	
  7285                           	opt stack 5
  7286                           ; Regs used in _lcd_put_hex: [wreg+status,2+status,0+pclath+cstack]
  7287                           ;lcd_put_hex@data stored from wreg
  7288                           	line	212
  7289  0C6C  1283               	bcf	status, 5	;RP0=0, select bank0
  7290  0C6D  1303               	bcf	status, 6	;RP1=0, select bank0
  7291  0C6E  00A6               	movwf	(lcd_put_hex@data)
  7292                           	
  7293  0C6F                     l30002965:	
  7294                           ;lcd.c: 209: unsigned char hi, lo;
  7295                           ;lcd.c: 212: hi = (data & 0xF0);
  7296  0C6F  0826               	movf	(lcd_put_hex@data),w
  7297  0C70  39F0               	andlw	0F0h
  7298  0C71  00A8               	movwf	(lcd_put_hex@hi)
  7299                           	
  7300  0C72                     l30002966:	
  7301                           	line	213
  7302                           ;lcd.c: 213: hi = (hi >> 4);
  7303  0C72  0828               	movf	(lcd_put_hex@hi),w
  7304  0C73  00F1               	movwf	(??_lcd_put_hex+0+0)
  7305  0C74  3004               	movlw	04h
  7306  0C75                     u3065:
  7307  0C75  1003               	clrc
  7308  0C76  0CF1               	rrf	(??_lcd_put_hex+0+0),f
  7309  0C77  3EFF               	addlw	-1
  7310  0C78  1D03               	skipz
  7311  0C79  2C75               	goto	u3065
  7312  0C7A  0871               	movf	0+(??_lcd_put_hex+0+0),w
  7313  0C7B  00A8               	movwf	(lcd_put_hex@hi)
  7314                           	
  7315  0C7C                     l30002967:	
  7316                           	line	215
  7317                           ;lcd.c: 215: hi = (hi + '0');
  7318  0C7C  0828               	movf	(lcd_put_hex@hi),w
  7319  0C7D  3E30               	addlw	030h
  7320  0C7E  00A8               	movwf	(lcd_put_hex@hi)
  7321                           	
  7322  0C7F                     l30002968:	
  7323                           	line	216
  7324                           ;lcd.c: 216: if (hi > '9') {
  7325  0C7F  303A               	movlw	(03Ah)
  7326  0C80  0228               	subwf	(lcd_put_hex@hi),w
  7327  0C81  1C03               	skipc
  7328  0C82  2C84               	goto	u3071
  7329  0C83  2C85               	goto	u3070
  7330  0C84                     u3071:
  7331  0C84  2C88               	goto	l30002970
  7332  0C85                     u3070:
  7333                           	
  7334  0C85                     l30002969:	
  7335                           	line	217
  7336                           ;lcd.c: 217: hi = (hi + 7);
  7337  0C85  0828               	movf	(lcd_put_hex@hi),w
  7338  0C86  3E07               	addlw	07h
  7339  0C87  00A8               	movwf	(lcd_put_hex@hi)
  7340                           	
  7341  0C88                     l30002970:	
  7342                           	line	221
  7343                           ;lcd.c: 218: }
  7344                           ;lcd.c: 221: lo = (data & 0x0F);
  7345  0C88  0826               	movf	(lcd_put_hex@data),w
  7346  0C89  390F               	andlw	0Fh
  7347  0C8A  00A7               	movwf	(lcd_put_hex@lo)
  7348                           	
  7349  0C8B                     l30002971:	
  7350                           	line	223
  7351                           ;lcd.c: 223: lo = (lo + '0');
  7352  0C8B  0827               	movf	(lcd_put_hex@lo),w
  7353  0C8C  3E30               	addlw	030h
  7354  0C8D  00A7               	movwf	(lcd_put_hex@lo)
  7355                           	
  7356  0C8E                     l30002972:	
  7357                           	line	224
  7358                           ;lcd.c: 224: if (lo > '9') {
  7359  0C8E  303A               	movlw	(03Ah)
  7360  0C8F  0227               	subwf	(lcd_put_hex@lo),w
  7361  0C90  1C03               	skipc
  7362  0C91  2C93               	goto	u3081
  7363  0C92  2C94               	goto	u3080
  7364  0C93                     u3081:
  7365  0C93  2C97               	goto	l30002974
  7366  0C94                     u3080:
  7367                           	
  7368  0C94                     l30002973:	
  7369                           	line	225
  7370                           ;lcd.c: 225: lo = (lo + 7);
  7371  0C94  0827               	movf	(lcd_put_hex@lo),w
  7372  0C95  3E07               	addlw	07h
  7373  0C96  00A7               	movwf	(lcd_put_hex@lo)
  7374                           	
  7375  0C97                     l30002974:	
  7376                           	line	227
  7377                           ;lcd.c: 226: }
  7378                           ;lcd.c: 227: lcd_put_char(hi);
  7379  0C97  0828               	movf	(lcd_put_hex@hi),w
  7380  0C98  120A  158A  24A6   	fcall	_lcd_put_char
              120A  158A         
  7381                           	
  7382  0C9D                     l30002975:	
  7383                           	line	228
  7384                           ;lcd.c: 228: lcd_put_char(lo);
  7385  0C9D  1283               	bcf	status, 5	;RP0=0, select bank0
  7386  0C9E  1303               	bcf	status, 6	;RP1=0, select bank0
  7387  0C9F  0827               	movf	(lcd_put_hex@lo),w
  7388  0CA0  120A  158A  24A6   	fcall	_lcd_put_char
              120A  158A         
  7389                           	
  7390  0CA5                     l236:	
  7391  0CA5  0008               	return
  7392                           	opt stack 0
  7393                           GLOBAL	__end_of_lcd_put_hex
  7394  0CA6                     	__end_of_lcd_put_hex:
  7395                           ; =============== function _lcd_put_hex ends ============
  7396                           
  7397                           psect	text244,local,class=CODE,delta=2
  7398                           global __ptext244
  7399  0CA6                     __ptext244:
  7400                           	line	231
  7401                           	signat	_lcd_put_hex,4216
  7402                           	global	_lcd_put_char
  7403                           
  7404                           ; *************** function _lcd_put_char *****************
  7405                           ; Defined at:
  7406                           ;		line 180 in file "C:\Users\denjo\Documents\PIC\infrated_ray\lcd.c"
  7407                           ; Parameters:    Size  Location     Type
  7408                           ;  data            1    wreg     unsigned char 
  7409                           ; Auto vars:     Size  Location     Type
  7410                           ;  data            1    4[BANK0 ] unsigned char 
  7411                           ;  temp            1    5[BANK0 ] unsigned char 
  7412                           ; Return value:  Size  Location     Type
  7413                           ;		None               void
  7414                           ; Registers used:
  7415                           ;		wreg, status,2, status,0, pclath, cstack
  7416                           ; Tracked objects:
  7417                           ;		On entry : 0/0
  7418                           ;		On exit  : 0/0
  7419                           ;		Unchanged: 0/0
  7420                           ; Data sizes:     COMMON   BANK0   BANK1   BANK3   BANK2
  7421                           ;      Locals:         1       2       0       0       0
  7422                           ;      Temp:     1
  7423                           ;      Total:    3
  7424                           ; This function calls:
  7425                           ;		_toggle_E
  7426                           ;		__delay
  7427                           ; This function is called by:
  7428                           ;		_lcd_put_hex
  7429                           ;		_lcd_put_ir_format
  7430                           ; This function uses a non-reentrant model
  7431                           ; 
  7432                           psect	text244
  7433                           	file	"C:\Users\denjo\Documents\PIC\infrated_ray\lcd.c"
  7434                           	line	180
  7435                           	global	__size_of_lcd_put_char
  7436  0041                     	__size_of_lcd_put_char	equ	__end_of_lcd_put_char-_lcd_put_char
  7437                           ;lcd.c: 179: void lcd_put_char(unsigned char data)
  7438                           ;lcd.c: 180: {
  7439                           	
  7440  0CA6                     _lcd_put_char:	
  7441                           	opt stack 4
  7442                           ; Regs used in _lcd_put_char: [wreg+status,2+status,0+pclath+cstack]
  7443                           ;lcd_put_char@data stored from wreg
  7444                           	line	183
  7445  0CA6  1283               	bcf	status, 5	;RP0=0, select bank0
  7446  0CA7  1303               	bcf	status, 6	;RP1=0, select bank0
  7447  0CA8  00A4               	movwf	(lcd_put_char@data)
  7448                           	
  7449  0CA9                     l30002952:	
  7450                           ;lcd.c: 181: unsigned char temp;
  7451                           ;lcd.c: 183: temp = (data & 0xF0);
  7452  0CA9  0824               	movf	(lcd_put_char@data),w
  7453  0CAA  39F0               	andlw	0F0h
  7454  0CAB  00A5               	movwf	(lcd_put_char@temp)
  7455                           	
  7456  0CAC                     l30002953:	
  7457                           	line	184
  7458                           ;lcd.c: 184: temp = (temp >> 2);
  7459  0CAC  0825               	movf	(lcd_put_char@temp),w
  7460  0CAD  00F0               	movwf	(??_lcd_put_char+0+0)
  7461  0CAE  3002               	movlw	02h
  7462  0CAF                     u3045:
  7463  0CAF  1003               	clrc
  7464  0CB0  0CF0               	rrf	(??_lcd_put_char+0+0),f
  7465  0CB1  3EFF               	addlw	-1
  7466  0CB2  1D03               	skipz
  7467  0CB3  2CAF               	goto	u3045
  7468  0CB4  0870               	movf	0+(??_lcd_put_char+0+0),w
  7469  0CB5  00A5               	movwf	(lcd_put_char@temp)
  7470                           	
  7471  0CB6                     l30002954:	
  7472                           	line	185
  7473                           ;lcd.c: 185: PORTC &= 0xC3;
  7474  0CB6  30C3               	movlw	(0C3h)
  7475  0CB7  00F0               	movwf	(??_lcd_put_char+0+0)
  7476  0CB8  0870               	movf	(??_lcd_put_char+0+0),w
  7477  0CB9  0587               	andwf	(7),f	;volatile
  7478                           	
  7479  0CBA                     l30002955:	
  7480                           	line	186
  7481                           ;lcd.c: 186: RA4 = 1;
  7482  0CBA  1605               	bsf	(44/8),(44)&7
  7483                           	
  7484  0CBB                     l30002956:	
  7485                           	line	187
  7486                           ;lcd.c: 187: PORTC |= temp;
  7487  0CBB  0825               	movf	(lcd_put_char@temp),w
  7488  0CBC  00F0               	movwf	(??_lcd_put_char+0+0)
  7489  0CBD  0870               	movf	(??_lcd_put_char+0+0),w
  7490  0CBE  0487               	iorwf	(7),f	;volatile
  7491                           	
  7492  0CBF                     l30002957:	
  7493                           	line	188
  7494                           ;lcd.c: 188: toggle_E();
  7495  0CBF  120A  158A  2219   	fcall	_toggle_E
              120A  158A         
  7496                           	
  7497  0CC4                     l30002958:	
  7498                           	line	189
  7499                           ;lcd.c: 189: temp = (data & 0x0F);
  7500  0CC4  1283               	bcf	status, 5	;RP0=0, select bank0
  7501  0CC5  1303               	bcf	status, 6	;RP1=0, select bank0
  7502  0CC6  0824               	movf	(lcd_put_char@data),w
  7503  0CC7  390F               	andlw	0Fh
  7504  0CC8  00A5               	movwf	(lcd_put_char@temp)
  7505                           	
  7506  0CC9                     l30002959:	
  7507                           	line	190
  7508                           ;lcd.c: 190: temp = (temp << 2);
  7509  0CC9  0825               	movf	(lcd_put_char@temp),w
  7510  0CCA  00F0               	movwf	(??_lcd_put_char+0+0)
  7511  0CCB  3001               	movlw	(02h)-1
  7512  0CCC                     u3055:
  7513  0CCC  1003               	clrc
  7514  0CCD  0DF0               	rlf	(??_lcd_put_char+0+0),f
  7515  0CCE  3EFF               	addlw	-1
  7516  0CCF  1D03               	skipz
  7517  0CD0  2CCC               	goto	u3055
  7518  0CD1  1003               	clrc
  7519  0CD2  0D70               	rlf	(??_lcd_put_char+0+0),w
  7520  0CD3  00A5               	movwf	(lcd_put_char@temp)
  7521                           	
  7522  0CD4                     l30002960:	
  7523                           	line	191
  7524                           ;lcd.c: 191: PORTC &= 0xC3;
  7525  0CD4  30C3               	movlw	(0C3h)
  7526  0CD5  00F0               	movwf	(??_lcd_put_char+0+0)
  7527  0CD6  0870               	movf	(??_lcd_put_char+0+0),w
  7528  0CD7  0587               	andwf	(7),f	;volatile
  7529                           	
  7530  0CD8                     l30002961:	
  7531                           	line	192
  7532                           ;lcd.c: 192: RA4 = 1;
  7533  0CD8  1605               	bsf	(44/8),(44)&7
  7534                           	
  7535  0CD9                     l30002962:	
  7536                           	line	193
  7537                           ;lcd.c: 193: PORTC |= temp;
  7538  0CD9  0825               	movf	(lcd_put_char@temp),w
  7539  0CDA  00F0               	movwf	(??_lcd_put_char+0+0)
  7540  0CDB  0870               	movf	(??_lcd_put_char+0+0),w
  7541  0CDC  0487               	iorwf	(7),f	;volatile
  7542                           	line	194
  7543                           ;lcd.c: 194: toggle_E();
  7544  0CDD  120A  158A  2219   	fcall	_toggle_E
              120A  158A         
  7545                           	
  7546  0CE2                     l30002963:	
  7547                           	line	195
  7548                           ;lcd.c: 195: _delay((unsigned long)((40)*(4000000/4000000.0)));
  7549  0CE2  300D               	movlw	13
  7550  0CE3  00F0               movwf	(??_lcd_put_char+0+0),f
  7551  0CE4                     u4027:
  7552  0CE4  0BF0               decfsz	(??_lcd_put_char+0+0),f
  7553  0CE5  2CE4               	goto	u4027
  7554                           
  7555                           	
  7556  0CE6                     l235:	
  7557  0CE6  0008               	return
  7558                           	opt stack 0
  7559                           GLOBAL	__end_of_lcd_put_char
  7560  0CE7                     	__end_of_lcd_put_char:
  7561                           ; =============== function _lcd_put_char ends ============
  7562                           
  7563                           psect	text245,local,class=CODE,delta=2
  7564                           global __ptext245
  7565  0AE6                     __ptext245:
  7566                           	line	198
  7567                           	signat	_lcd_put_char,4216
  7568                           	global	_IR_NEC_DataCode_BitOff_Send
  7569                           
  7570                           ; *************** function _IR_NEC_DataCode_BitOff_Send *****************
  7571                           ; Defined at:
  7572                           ;		line 63 in file "C:\Users\denjo\Documents\PIC\infrated_ray\ir_out.c"
  7573                           ; Parameters:    Size  Location     Type
  7574                           ;		None
  7575                           ; Auto vars:     Size  Location     Type
  7576                           ;		None
  7577                           ; Return value:  Size  Location     Type
  7578                           ;		None               void
  7579                           ; Registers used:
  7580                           ;		wreg, status,2, status,0
  7581                           ; Tracked objects:
  7582                           ;		On entry : 0/0
  7583                           ;		On exit  : 0/0
  7584                           ;		Unchanged: 0/0
  7585                           ; Data sizes:     COMMON   BANK0   BANK1   BANK3   BANK2
  7586                           ;      Locals:         1       0       0       0       0
  7587                           ;      Temp:     1
  7588                           ;      Total:    1
  7589                           ; This function calls:
  7590                           ;		__delay
  7591                           ; This function is called by:
  7592                           ;		_IR_NEC_format
  7593                           ; This function uses a non-reentrant model
  7594                           ; 
  7595                           psect	text245
  7596                           	file	"C:\Users\denjo\Documents\PIC\infrated_ray\ir_out.c"
  7597                           	line	63
  7598                           	global	__size_of_IR_NEC_DataCode_BitOff_Send
  7599  0017                     	__size_of_IR_NEC_DataCode_BitOff_Send	equ	__end_of_IR_NEC_DataCode_BitOff_Send-_IR_NEC_
                                 DataCode_BitOff_Send
  7600                           ;ir_out.c: 62: void IR_NEC_DataCode_BitOff_Send(void)
  7601                           ;ir_out.c: 63: {
  7602                           	
  7603  0AE6                     _IR_NEC_DataCode_BitOff_Send:	
  7604                           	opt stack 4
  7605                           ; Regs used in _IR_NEC_DataCode_BitOff_Send: [wreg+status,2+status,0]
  7606                           	line	64
  7607                           	
  7608  0AE6                     l30003150:	
  7609                           ;ir_out.c: 64: CCP2CON = 0x2C;
  7610  0AE6  302C               	movlw	(02Ch)
  7611  0AE7  1283               	bcf	status, 5	;RP0=0, select bank0
  7612  0AE8  1303               	bcf	status, 6	;RP1=0, select bank0
  7613  0AE9  009D               	movwf	(29)	;volatile
  7614                           	line	65
  7615                           ;ir_out.c: 65: _delay((unsigned long)((570)*(4000000/4000000.0)));
  7616  0AEA  30BD               	movlw	189
  7617  0AEB  00F0               movwf	(??_IR_NEC_DataCode_BitOff_Send+0+0),f
  7618  0AEC                     u4037:
  7619  0AEC  0BF0               decfsz	(??_IR_NEC_DataCode_BitOff_Send+0+0),f
  7620  0AED  2AEC               	goto	u4037
  7621  0AEE  2AEF               	nop2	;nop
  7622                           
  7623                           	line	66
  7624                           ;ir_out.c: 66: CCP2CON = 0x20;
  7625  0AEF  3020               	movlw	(020h)
  7626  0AF0  1283               	bcf	status, 5	;RP0=0, select bank0
  7627  0AF1  1303               	bcf	status, 6	;RP1=0, select bank0
  7628  0AF2  009D               	movwf	(29)	;volatile
  7629                           	
  7630  0AF3                     l30003151:	
  7631                           	line	67
  7632                           ;ir_out.c: 67: PORTC &= ~0x02;
  7633  0AF3  30FD               	movlw	(0FDh)
  7634  0AF4  00F0               	movwf	(??_IR_NEC_DataCode_BitOff_Send+0+0)
  7635  0AF5  0870               	movf	(??_IR_NEC_DataCode_BitOff_Send+0+0),w
  7636  0AF6  0587               	andwf	(7),f	;volatile
  7637                           	
  7638  0AF7                     l30003152:	
  7639                           	line	68
  7640                           ;ir_out.c: 68: _delay((unsigned long)((510)*(4000000/4000000.0)));
  7641  0AF7  30A9               	movlw	169
  7642  0AF8  00F0               movwf	(??_IR_NEC_DataCode_BitOff_Send+0+0),f
  7643  0AF9                     u4047:
  7644  0AF9  0BF0               decfsz	(??_IR_NEC_DataCode_BitOff_Send+0+0),f
  7645  0AFA  2AF9               	goto	u4047
  7646  0AFB  2AFC               	nop2	;nop
  7647                           
  7648                           	
  7649  0AFC                     l199:	
  7650  0AFC  0008               	return
  7651                           	opt stack 0
  7652                           GLOBAL	__end_of_IR_NEC_DataCode_BitOff_Send
  7653  0AFD                     	__end_of_IR_NEC_DataCode_BitOff_Send:
  7654                           ; =============== function _IR_NEC_DataCode_BitOff_Send ends ============
  7655                           
  7656                           psect	text246,local,class=CODE,delta=2
  7657                           global __ptext246
  7658  0AAB                     __ptext246:
  7659                           	line	71
  7660                           	signat	_IR_NEC_DataCode_BitOff_Send,88
  7661                           	global	_IR_NEC_DataCode_StopBit_Send
  7662                           
  7663                           ; *************** function _IR_NEC_DataCode_StopBit_Send *****************
  7664                           ; Defined at:
  7665                           ;		line 82 in file "C:\Users\denjo\Documents\PIC\infrated_ray\ir_out.c"
  7666                           ; Parameters:    Size  Location     Type
  7667                           ;		None
  7668                           ; Auto vars:     Size  Location     Type
  7669                           ;		None
  7670                           ; Return value:  Size  Location     Type
  7671                           ;		None               void
  7672                           ; Registers used:
  7673                           ;		wreg, status,2, status,0
  7674                           ; Tracked objects:
  7675                           ;		On entry : 0/0
  7676                           ;		On exit  : 0/0
  7677                           ;		Unchanged: 0/0
  7678                           ; Data sizes:     COMMON   BANK0   BANK1   BANK3   BANK2
  7679                           ;      Locals:         1       0       0       0       0
  7680                           ;      Temp:     1
  7681                           ;      Total:    1
  7682                           ; This function calls:
  7683                           ;		__delay
  7684                           ; This function is called by:
  7685                           ;		_IR_NEC_format
  7686                           ; This function uses a non-reentrant model
  7687                           ; 
  7688                           psect	text246
  7689                           	file	"C:\Users\denjo\Documents\PIC\infrated_ray\ir_out.c"
  7690                           	line	82
  7691                           	global	__size_of_IR_NEC_DataCode_StopBit_Send
  7692  0012                     	__size_of_IR_NEC_DataCode_StopBit_Send	equ	__end_of_IR_NEC_DataCode_StopBit_Send-_IR_NE
                                 C_DataCode_StopBit_Send
  7693                           ;ir_out.c: 81: void IR_NEC_DataCode_StopBit_Send(void)
  7694                           ;ir_out.c: 82: {
  7695                           	
  7696  0AAB                     _IR_NEC_DataCode_StopBit_Send:	
  7697                           	opt stack 4
  7698                           ; Regs used in _IR_NEC_DataCode_StopBit_Send: [wreg+status,2+status,0]
  7699                           	line	83
  7700                           	
  7701  0AAB                     l30003154:	
  7702                           ;ir_out.c: 83: CCP2CON = 0x2C;
  7703  0AAB  302C               	movlw	(02Ch)
  7704  0AAC  1283               	bcf	status, 5	;RP0=0, select bank0
  7705  0AAD  1303               	bcf	status, 6	;RP1=0, select bank0
  7706  0AAE  009D               	movwf	(29)	;volatile
  7707                           	line	84
  7708                           ;ir_out.c: 84: _delay((unsigned long)((570)*(4000000/4000000.0)));
  7709  0AAF  30BD               	movlw	189
  7710  0AB0  00F0               movwf	(??_IR_NEC_DataCode_StopBit_Send+0+0),f
  7711  0AB1                     u4057:
  7712  0AB1  0BF0               decfsz	(??_IR_NEC_DataCode_StopBit_Send+0+0),f
  7713  0AB2  2AB1               	goto	u4057
  7714  0AB3  2AB4               	nop2	;nop
  7715                           
  7716                           	line	85
  7717                           ;ir_out.c: 85: CCP2CON = 0x20;
  7718  0AB4  3020               	movlw	(020h)
  7719  0AB5  1283               	bcf	status, 5	;RP0=0, select bank0
  7720  0AB6  1303               	bcf	status, 6	;RP1=0, select bank0
  7721  0AB7  009D               	movwf	(29)	;volatile
  7722                           	
  7723  0AB8                     l30003155:	
  7724                           	line	86
  7725                           ;ir_out.c: 86: PORTC &= ~0x02;
  7726  0AB8  30FD               	movlw	(0FDh)
  7727  0AB9  00F0               	movwf	(??_IR_NEC_DataCode_StopBit_Send+0+0)
  7728  0ABA  0870               	movf	(??_IR_NEC_DataCode_StopBit_Send+0+0),w
  7729  0ABB  0587               	andwf	(7),f	;volatile
  7730                           	
  7731  0ABC                     l200:	
  7732  0ABC  0008               	return
  7733                           	opt stack 0
  7734                           GLOBAL	__end_of_IR_NEC_DataCode_StopBit_Send
  7735  0ABD                     	__end_of_IR_NEC_DataCode_StopBit_Send:
  7736                           ; =============== function _IR_NEC_DataCode_StopBit_Send ends ============
  7737                           
  7738                           psect	text247,local,class=CODE,delta=2
  7739                           global __ptext247
  7740  0B7E                     __ptext247:
  7741                           	line	89
  7742                           	signat	_IR_NEC_DataCode_StopBit_Send,88
  7743                           	global	_IR_NEC_ReaderCode_Send
  7744                           
  7745                           ; *************** function _IR_NEC_ReaderCode_Send *****************
  7746                           ; Defined at:
  7747                           ;		line 25 in file "C:\Users\denjo\Documents\PIC\infrated_ray\ir_out.c"
  7748                           ; Parameters:    Size  Location     Type
  7749                           ;		None
  7750                           ; Auto vars:     Size  Location     Type
  7751                           ;		None
  7752                           ; Return value:  Size  Location     Type
  7753                           ;		None               void
  7754                           ; Registers used:
  7755                           ;		wreg, status,2, status,0
  7756                           ; Tracked objects:
  7757                           ;		On entry : 0/0
  7758                           ;		On exit  : 0/0
  7759                           ;		Unchanged: 0/0
  7760                           ; Data sizes:     COMMON   BANK0   BANK1   BANK3   BANK2
  7761                           ;      Locals:         2       0       0       0       0
  7762                           ;      Temp:     2
  7763                           ;      Total:    2
  7764                           ; This function calls:
  7765                           ;		__delay
  7766                           ; This function is called by:
  7767                           ;		_IR_NEC_format
  7768                           ; This function uses a non-reentrant model
  7769                           ; 
  7770                           psect	text247
  7771                           	file	"C:\Users\denjo\Documents\PIC\infrated_ray\ir_out.c"
  7772                           	line	25
  7773                           	global	__size_of_IR_NEC_ReaderCode_Send
  7774  001D                     	__size_of_IR_NEC_ReaderCode_Send	equ	__end_of_IR_NEC_ReaderCode_Send-_IR_NEC_ReaderCode
                                 _Send
  7775                           ;ir_out.c: 24: void IR_NEC_ReaderCode_Send(void)
  7776                           ;ir_out.c: 25: {
  7777                           	
  7778  0B7E                     _IR_NEC_ReaderCode_Send:	
  7779                           	opt stack 4
  7780                           ; Regs used in _IR_NEC_ReaderCode_Send: [wreg+status,2+status,0]
  7781                           	line	26
  7782                           	
  7783  0B7E                     l30003157:	
  7784                           ;ir_out.c: 26: CCP2CON = 0x2C;
  7785  0B7E  302C               	movlw	(02Ch)
  7786  0B7F  1283               	bcf	status, 5	;RP0=0, select bank0
  7787  0B80  1303               	bcf	status, 6	;RP1=0, select bank0
  7788  0B81  009D               	movwf	(29)	;volatile
  7789                           	line	27
  7790                           ;ir_out.c: 27: _delay((unsigned long)((9000)*(4000000/4000000.0)));
  7791  0B82  300C               	movlw	12
  7792  0B83  00F1               movwf	(??_IR_NEC_ReaderCode_Send+0+0+1),f
  7793  0B84  30AF               	movlw	175
  7794  0B85  00F0               movwf	(??_IR_NEC_ReaderCode_Send+0+0),f
  7795  0B86                     u4067:
  7796  0B86  0BF0               	decfsz	(??_IR_NEC_ReaderCode_Send+0+0),f
  7797  0B87  2B86               	goto	u4067
  7798  0B88  0BF1               	decfsz	(??_IR_NEC_ReaderCode_Send+0+0+1),f
  7799  0B89  2B86               	goto	u4067
  7800                           
  7801                           	line	28
  7802                           ;ir_out.c: 28: CCP2CON = 0x20;
  7803  0B8A  3020               	movlw	(020h)
  7804  0B8B  1283               	bcf	status, 5	;RP0=0, select bank0
  7805  0B8C  1303               	bcf	status, 6	;RP1=0, select bank0
  7806  0B8D  009D               	movwf	(29)	;volatile
  7807                           	
  7808  0B8E                     l30003158:	
  7809                           	line	29
  7810                           ;ir_out.c: 29: PORTC &= ~0x02;
  7811  0B8E  30FD               	movlw	(0FDh)
  7812  0B8F  00F0               	movwf	(??_IR_NEC_ReaderCode_Send+0+0)
  7813  0B90  0870               	movf	(??_IR_NEC_ReaderCode_Send+0+0),w
  7814  0B91  0587               	andwf	(7),f	;volatile
  7815                           	
  7816  0B92                     l30003159:	
  7817                           	line	30
  7818                           ;ir_out.c: 30: _delay((unsigned long)((4500)*(4000000/4000000.0)));
  7819  0B92  3006               	movlw	6
  7820  0B93  00F1               movwf	(??_IR_NEC_ReaderCode_Send+0+0+1),f
  7821  0B94  30D7               	movlw	215
  7822  0B95  00F0               movwf	(??_IR_NEC_ReaderCode_Send+0+0),f
  7823  0B96                     u4077:
  7824  0B96  0BF0               	decfsz	(??_IR_NEC_ReaderCode_Send+0+0),f
  7825  0B97  2B96               	goto	u4077
  7826  0B98  0BF1               	decfsz	(??_IR_NEC_ReaderCode_Send+0+0+1),f
  7827  0B99  2B96               	goto	u4077
  7828                           
  7829                           	
  7830  0B9A                     l197:	
  7831  0B9A  0008               	return
  7832                           	opt stack 0
  7833                           GLOBAL	__end_of_IR_NEC_ReaderCode_Send
  7834  0B9B                     	__end_of_IR_NEC_ReaderCode_Send:
  7835                           ; =============== function _IR_NEC_ReaderCode_Send ends ============
  7836                           
  7837                           psect	text248,local,class=CODE,delta=2
  7838                           global __ptext248
  7839  0B48                     __ptext248:
  7840                           	line	33
  7841                           	signat	_IR_NEC_ReaderCode_Send,88
  7842                           	global	_IR_NEC_DataCode_BitOn_Send
  7843                           
  7844                           ; *************** function _IR_NEC_DataCode_BitOn_Send *****************
  7845                           ; Defined at:
  7846                           ;		line 44 in file "C:\Users\denjo\Documents\PIC\infrated_ray\ir_out.c"
  7847                           ; Parameters:    Size  Location     Type
  7848                           ;		None
  7849                           ; Auto vars:     Size  Location     Type
  7850                           ;		None
  7851                           ; Return value:  Size  Location     Type
  7852                           ;		None               void
  7853                           ; Registers used:
  7854                           ;		wreg, status,2, status,0
  7855                           ; Tracked objects:
  7856                           ;		On entry : 0/0
  7857                           ;		On exit  : 0/0
  7858                           ;		Unchanged: 0/0
  7859                           ; Data sizes:     COMMON   BANK0   BANK1   BANK3   BANK2
  7860                           ;      Locals:         1       0       0       0       0
  7861                           ;      Temp:     1
  7862                           ;      Total:    1
  7863                           ; This function calls:
  7864                           ;		__delay
  7865                           ; This function is called by:
  7866                           ;		_IR_NEC_format
  7867                           ; This function uses a non-reentrant model
  7868                           ; 
  7869                           psect	text248
  7870                           	file	"C:\Users\denjo\Documents\PIC\infrated_ray\ir_out.c"
  7871                           	line	44
  7872                           	global	__size_of_IR_NEC_DataCode_BitOn_Send
  7873  001A                     	__size_of_IR_NEC_DataCode_BitOn_Send	equ	__end_of_IR_NEC_DataCode_BitOn_Send-_IR_NEC_Da
                                 taCode_BitOn_Send
  7874                           ;ir_out.c: 43: void IR_NEC_DataCode_BitOn_Send(void)
  7875                           ;ir_out.c: 44: {
  7876                           	
  7877  0B48                     _IR_NEC_DataCode_BitOn_Send:	
  7878                           	opt stack 4
  7879                           ; Regs used in _IR_NEC_DataCode_BitOn_Send: [wreg+status,2+status,0]
  7880                           	line	45
  7881                           	
  7882  0B48                     l30003161:	
  7883                           ;ir_out.c: 45: CCP2CON = 0x2C;
  7884  0B48  302C               	movlw	(02Ch)
  7885  0B49  1283               	bcf	status, 5	;RP0=0, select bank0
  7886  0B4A  1303               	bcf	status, 6	;RP1=0, select bank0
  7887  0B4B  009D               	movwf	(29)	;volatile
  7888                           	line	46
  7889                           ;ir_out.c: 46: _delay((unsigned long)((570)*(4000000/4000000.0)));
  7890  0B4C  30BD               	movlw	189
  7891  0B4D  00F0               movwf	(??_IR_NEC_DataCode_BitOn_Send+0+0),f
  7892  0B4E                     u4087:
  7893  0B4E  0BF0               decfsz	(??_IR_NEC_DataCode_BitOn_Send+0+0),f
  7894  0B4F  2B4E               	goto	u4087
  7895  0B50  2B51               	nop2	;nop
  7896                           
  7897                           	line	47
  7898                           ;ir_out.c: 47: CCP2CON = 0x20;
  7899  0B51  3020               	movlw	(020h)
  7900  0B52  1283               	bcf	status, 5	;RP0=0, select bank0
  7901  0B53  1303               	bcf	status, 6	;RP1=0, select bank0
  7902  0B54  009D               	movwf	(29)	;volatile
  7903                           	
  7904  0B55                     l30003162:	
  7905                           	line	48
  7906                           ;ir_out.c: 48: PORTC &= ~0x02;
  7907  0B55  30FD               	movlw	(0FDh)
  7908  0B56  00F0               	movwf	(??_IR_NEC_DataCode_BitOn_Send+0+0)
  7909  0B57  0870               	movf	(??_IR_NEC_DataCode_BitOn_Send+0+0),w
  7910  0B58  0587               	andwf	(7),f	;volatile
  7911                           	
  7912  0B59                     l30003163:	
  7913                           	line	49
  7914                           ;ir_out.c: 49: _delay((unsigned long)((1600)*(4000000/4000000.0)));
  7915  0B59  30E4               	movlw	228
  7916  0B5A  00F0               movwf	(??_IR_NEC_DataCode_BitOn_Send+0+0),f
  7917  0B5B                     u4097:
  7918  0B5B  2B5C               	nop2
  7919  0B5C  2B5D               	nop2
  7920  0B5D  0BF0               decfsz	(??_IR_NEC_DataCode_BitOn_Send+0+0),f
  7921  0B5E  2B5B               	goto	u4097
  7922  0B5F  2B60               	nop2	;nop
  7923  0B60  0064               	clrwdt
  7924                           
  7925                           	
  7926  0B61                     l198:	
  7927  0B61  0008               	return
  7928                           	opt stack 0
  7929                           GLOBAL	__end_of_IR_NEC_DataCode_BitOn_Send
  7930  0B62                     	__end_of_IR_NEC_DataCode_BitOn_Send:
  7931                           ; =============== function _IR_NEC_DataCode_BitOn_Send ends ============
  7932                           
  7933                           psect	text249,local,class=CODE,delta=2
  7934                           global __ptext249
  7935  0B62                     __ptext249:
  7936                           	line	52
  7937                           	signat	_IR_NEC_DataCode_BitOn_Send,88
  7938                           	global	_IR_KDN_ReaderCode_Send
  7939                           
  7940                           ; *************** function _IR_KDN_ReaderCode_Send *****************
  7941                           ; Defined at:
  7942                           ;		line 139 in file "C:\Users\denjo\Documents\PIC\infrated_ray\ir_out.c"
  7943                           ; Parameters:    Size  Location     Type
  7944                           ;		None
  7945                           ; Auto vars:     Size  Location     Type
  7946                           ;		None
  7947                           ; Return value:  Size  Location     Type
  7948                           ;		None               void
  7949                           ; Registers used:
  7950                           ;		wreg, status,2, status,0
  7951                           ; Tracked objects:
  7952                           ;		On entry : 0/0
  7953                           ;		On exit  : 0/0
  7954                           ;		Unchanged: 0/0
  7955                           ; Data sizes:     COMMON   BANK0   BANK1   BANK3   BANK2
  7956                           ;      Locals:         2       0       0       0       0
  7957                           ;      Temp:     2
  7958                           ;      Total:    2
  7959                           ; This function calls:
  7960                           ;		__delay
  7961                           ; This function is called by:
  7962                           ;		_IR_KDN_format
  7963                           ; This function uses a non-reentrant model
  7964                           ; 
  7965                           psect	text249
  7966                           	file	"C:\Users\denjo\Documents\PIC\infrated_ray\ir_out.c"
  7967                           	line	139
  7968                           	global	__size_of_IR_KDN_ReaderCode_Send
  7969  001C                     	__size_of_IR_KDN_ReaderCode_Send	equ	__end_of_IR_KDN_ReaderCode_Send-_IR_KDN_ReaderCode
                                 _Send
  7970                           ;ir_out.c: 138: void IR_KDN_ReaderCode_Send(void)
  7971                           ;ir_out.c: 139: {
  7972                           	
  7973  0B62                     _IR_KDN_ReaderCode_Send:	
  7974                           	opt stack 4
  7975                           ; Regs used in _IR_KDN_ReaderCode_Send: [wreg+status,2+status,0]
  7976                           	line	140
  7977                           	
  7978  0B62                     l30002985:	
  7979                           ;ir_out.c: 140: CCP2CON = 0x2C;
  7980  0B62  302C               	movlw	(02Ch)
  7981  0B63  1283               	bcf	status, 5	;RP0=0, select bank0
  7982  0B64  1303               	bcf	status, 6	;RP1=0, select bank0
  7983  0B65  009D               	movwf	(29)	;volatile
  7984                           	line	141
  7985                           ;ir_out.c: 141: _delay((unsigned long)((3250)*(4000000/4000000.0)));
  7986  0B66  3005               	movlw	5
  7987  0B67  00F1               movwf	(??_IR_KDN_ReaderCode_Send+0+0+1),f
  7988  0B68  3037               	movlw	55
  7989  0B69  00F0               movwf	(??_IR_KDN_ReaderCode_Send+0+0),f
  7990  0B6A                     u4107:
  7991  0B6A  0BF0               	decfsz	(??_IR_KDN_ReaderCode_Send+0+0),f
  7992  0B6B  2B6A               	goto	u4107
  7993  0B6C  0BF1               	decfsz	(??_IR_KDN_ReaderCode_Send+0+0+1),f
  7994  0B6D  2B6A               	goto	u4107
  7995                           
  7996                           	line	142
  7997                           ;ir_out.c: 142: CCP2CON = 0x20;
  7998  0B6E  3020               	movlw	(020h)
  7999  0B6F  1283               	bcf	status, 5	;RP0=0, select bank0
  8000  0B70  1303               	bcf	status, 6	;RP1=0, select bank0
  8001  0B71  009D               	movwf	(29)	;volatile
  8002                           	
  8003  0B72                     l30002986:	
  8004                           	line	143
  8005                           ;ir_out.c: 143: PORTC &= ~0x02;
  8006  0B72  30FD               	movlw	(0FDh)
  8007  0B73  00F0               	movwf	(??_IR_KDN_ReaderCode_Send+0+0)
  8008  0B74  0870               	movf	(??_IR_KDN_ReaderCode_Send+0+0),w
  8009  0B75  0587               	andwf	(7),f	;volatile
  8010                           	
  8011  0B76                     l30002987:	
  8012+                          	line	144
  8013+                          ;ir_out.c: 144: _delay((unsigned long)((1500)*(4000000/4000000.0)));
  8014+ 0B76  30D6               	movlw	214
  8015+ 0B77  00F0               movwf	(??_IR_KDN_ReaderCode_Send+0+0),f
  8016+ 0B78                     u4117:
  8017+ 0B78  2B79               	nop2
  8018+ 0B79  2B7A               	nop2
  8019+ 0B7A  0BF0               decfsz	(??_IR_KDN_ReaderCode_Send+0+0),f
  8020+ 0B7B  2B78               	goto	u4117
  8021+ 0B7C  0064               	clrwdt
  8022+                          
  8023+                          	
  8024+ 0B7D                     l210:	
  8025+ 0B7D  0008               	return
  8026+                          	opt stack 0
  8027+                          GLOBAL	__end_of_IR_KDN_ReaderCode_Send
  8028+ 0B7E                     	__end_of_IR_KDN_ReaderCode_Send:
  8029+                          ; =============== function _IR_KDN_ReaderCode_Send ends ============
  8030+                          
  8031+                          psect	text250,local,class=CODE,delta=2
  8032+                          global __ptext250
  8033+ 0ABD                     __ptext250:
  8034+                          	line	147
  8035+                          	signat	_IR_KDN_ReaderCode_Send,88
  8036+                          	global	_IR_KDN_DataCode_StopBit_Send
  8037+                          
  8038+                          ; *************** function _IR_KDN_DataCode_StopBit_Send *****************
  8039+                          ; Defined at:
  8040+                          ;		line 196 in file "C:\Users\denjo\Documents\PIC\infrated_ray\ir_out.c"
  8041+                          ; Parameters:    Size  Location     Type
  8042+                          ;		None
  8043+                          ; Auto vars:     Size  Location     Type
  8044+                          ;		None
  8045+                          ; Return value:  Size  Location     Type
  8046+                          ;		None               void
  8047+                          ; Registers used:
  8048+                          ;		wreg, status,2, status,0
  8049+                          ; Tracked objects:
  8050+                          ;		On entry : 0/0
  8051+                          ;		On exit  : 0/0
  8052+                          ;		Unchanged: 0/0
  8053+                          ; Data sizes:     COMMON   BANK0   BANK1   BANK3   BANK2
  8054+                          ;      Locals:         1       0       0       0       0
  8055+                          ;      Temp:     1
  8056+                          ;      Total:    1
  8057+                          ; This function calls:
  8058+                          ;		__delay
  8059+                          ; This function is called by:
  8060+                          ;		_IR_KDN_format
  8061+                          ; This function uses a non-reentrant model
  8062+                          ; 
  8063+                          psect	text250
  8064+                          	file	"C:\Users\denjo\Documents\PIC\infrated_ray\ir_out.c"
  8065+                          	line	196
  8066+                          	global	__size_of_IR_KDN_DataCode_StopBit_Send
  8067+ 0012                     	__size_of_IR_KDN_DataCode_StopBit_Send	equ	__end_of_IR_KDN_DataCode_StopBit_Send-_IR_KD
      +                          N_DataCode_StopBit_Send
  8068+                          ;ir_out.c: 195: void IR_KDN_DataCode_StopBit_Send(void)
  8069+                          ;ir_out.c: 196: {
  8070+                          	
  8071+ 0ABD                     _IR_KDN_DataCode_StopBit_Send:	
  8072+                          	opt stack 4
  8073+                          ; Regs used in _IR_KDN_DataCode_StopBit_Send: [wreg+status,2+status,0]
  8074+                          	line	197
  8075+                          	
  8076+ 0ABD                     l30002989:	
  8077+                          ;ir_out.c: 197: CCP2CON = 0x2C;
  8078+ 0ABD  302C               	movlw	(02Ch)
  8079+ 0ABE  1283               	bcf	status, 5	;RP0=0, select bank0
  8080+ 0ABF  1303               	bcf	status, 6	;RP1=0, select bank0
  8081+ 0AC0  009D               	movwf	(29)	;volatile
  8082+                          	line	198
  8083+                          ;ir_out.c: 198: _delay((unsigned long)((420)*(4000000/4000000.0)));
  8084+ 0AC1  308B               	movlw	139
  8085+ 0AC2  00F0               movwf	(??_IR_KDN_DataCode_StopBit_Send+0+0),f
  8086+ 0AC3                     u4127:
  8087+ 0AC3  0BF0               decfsz	(??_IR_KDN_DataCode_StopBit_Send+0+0),f
  8088+ 0AC4  2AC3               	goto	u4127
  8089+ 0AC5  2AC6               	nop2	;nop
  8090+                          
  8091+                          	line	199
  8092+                          ;ir_out.c: 199: CCP2CON = 0x20;
  8093+ 0AC6  3020               	movlw	(020h)
  8094+ 0AC7  1283               	bcf	status, 5	;RP0=0, select bank0
  8095+ 0AC8  1303               	bcf	status, 6	;RP1=0, select bank0
  8096+ 0AC9  009D               	movwf	(29)	;volatile
  8097+                          	
  8098+ 0ACA                     l30002990:	
  8099+                          	line	200
  8100+                          ;ir_out.c: 200: PORTC &= ~0x02;
  8101+ 0ACA  30FD               	movlw	(0FDh)
  8102+ 0ACB  00F0               	movwf	(??_IR_KDN_DataCode_StopBit_Send+0+0)
  8103+ 0ACC  0870               	movf	(??_IR_KDN_DataCode_StopBit_Send+0+0),w
  8104+ 0ACD  0587               	andwf	(7),f	;volatile
  8105+                          	
  8106+ 0ACE                     l213:	
  8107+ 0ACE  0008               	return
  8108+                          	opt stack 0
  8109+                          GLOBAL	__end_of_IR_KDN_DataCode_StopBit_Send
  8110+ 0ACF                     	__end_of_IR_KDN_DataCode_StopBit_Send:
  8111+                          ; =============== function _IR_KDN_DataCode_StopBit_Send ends ============
  8112+                          
  8113+                          psect	text251,local,class=CODE,delta=2
  8114+                          global __ptext251
  8115+ 0ACF                     __ptext251:
  8116+                          	line	203
  8117+                          	signat	_IR_KDN_DataCode_StopBit_Send,88
  8118+                          	global	_IR_KDN_DataCode_BitOff_Send
  8119+                          
  8120+                          ; *************** function _IR_KDN_DataCode_BitOff_Send *****************
  8121+                          ; Defined at:
  8122+                          ;		line 177 in file "C:\Users\denjo\Documents\PIC\infrated_ray\ir_out.c"
  8123+                          ; Parameters:    Size  Location     Type
  8124+                          ;		None
  8125+                          ; Auto vars:     Size  Location     Type
  8126+                          ;		None
  8127+                          ; Return value:  Size  Location     Type
  8128+                          ;		None               void
  8129+                          ; Registers used:
  8130+                          ;		wreg, status,2, status,0
  8131+                          ; Tracked objects:
  8132+                          ;		On entry : 0/0
  8133+                          ;		On exit  : 0/0
  8134+                          ;		Unchanged: 0/0
  8135+                          ; Data sizes:     COMMON   BANK0   BANK1   BANK3   BANK2
  8136+                          ;      Locals:         1       0       0       0       0
  8137+                          ;      Temp:     1
  8138+                          ;      Total:    1
  8139+                          ; This function calls:
  8140+                          ;		__delay
  8141+                          ; This function is called by:
  8142+                          ;		_IR_KDN_format
  8143+                          ; This function uses a non-reentrant model
  8144+                          ; 
  8145+                          psect	text251
  8146+                          	file	"C:\Users\denjo\Documents\PIC\infrated_ray\ir_out.c"
  8147+                          	line	177
  8148+                          	global	__size_of_IR_KDN_DataCode_BitOff_Send
  8149+ 0017                     	__size_of_IR_KDN_DataCode_BitOff_Send	equ	__end_of_IR_KDN_DataCode_BitOff_Send-_IR_KDN_
      +                          DataCode_BitOff_Send
  8150+                          ;ir_out.c: 176: void IR_KDN_DataCode_BitOff_Send(void)
  8151+                          ;ir_out.c: 177: {
  8152+                          	
  8153+ 0ACF                     _IR_KDN_DataCode_BitOff_Send:	
  8154+                          	opt stack 4
  8155+                          ; Regs used in _IR_KDN_DataCode_BitOff_Send: [wreg+status,2+status,0]
  8156+                          	line	178
  8157+                          	
  8158+ 0ACF                     l30002981:	
  8159+                          ;ir_out.c: 178: CCP2CON = 0x2C;
  8160+ 0ACF  302C               	movlw	(02Ch)
  8161+ 0AD0  1283               	bcf	status, 5	;RP0=0, select bank0
  8162+ 0AD1  1303               	bcf	status, 6	;RP1=0, select bank0
  8163+ 0AD2  009D               	movwf	(29)	;volatile
  8164+                          	line	179
  8165+                          ;ir_out.c: 179: _delay((unsigned long)((420)*(4000000/4000000.0)));
  8166+ 0AD3  308B               	movlw	139
  8167+ 0AD4  00F0               movwf	(??_IR_KDN_DataCode_BitOff_Send+0+0),f
  8168+ 0AD5                     u4137:
  8169+ 0AD5  0BF0               decfsz	(??_IR_KDN_DataCode_BitOff_Send+0+0),f
  8170+ 0AD6  2AD5               	goto	u4137
  8171+ 0AD7  2AD8               	nop2	;nop
  8172+                          
  8173+                          	line	180
  8174+                          ;ir_out.c: 180: CCP2CON = 0x20;
  8175+ 0AD8  3020               	movlw	(020h)
  8176+ 0AD9  1283               	bcf	status, 5	;RP0=0, select bank0
  8177+ 0ADA  1303               	bcf	status, 6	;RP1=0, select bank0
  8178+ 0ADB  009D               	movwf	(29)	;volatile
  8179+                          	
  8180+ 0ADC                     l30002982:	
  8181+                          	line	181
  8182+                          ;ir_out.c: 181: PORTC &= ~0x02;
  8183+ 0ADC  30FD               	movlw	(0FDh)
  8184+ 0ADD  00F0               	movwf	(??_IR_KDN_DataCode_BitOff_Send+0+0)
  8185+ 0ADE  0870               	movf	(??_IR_KDN_DataCode_BitOff_Send+0+0),w
  8186+ 0ADF  0587               	andwf	(7),f	;volatile
  8187+                          	
  8188+ 0AE0                     l30002983:	
  8189+                          	line	182
  8190+                          ;ir_out.c: 182: _delay((unsigned long)((300)*(4000000/4000000.0)));
  8191+ 0AE0  3063               	movlw	99
  8192+ 0AE1  00F0               movwf	(??_IR_KDN_DataCode_BitOff_Send+0+0),f
  8193+ 0AE2                     u4147:
  8194+ 0AE2  0BF0               decfsz	(??_IR_KDN_DataCode_BitOff_Send+0+0),f
  8195+ 0AE3  2AE2               	goto	u4147
  8196+ 0AE4  2AE5               	nop2	;nop
  8197+                          
  8198+                          	
  8199+ 0AE5                     l212:	
  8200+ 0AE5  0008               	return
  8201+                          	opt stack 0
  8202+                          GLOBAL	__end_of_IR_KDN_DataCode_BitOff_Send
  8203+ 0AE6                     	__end_of_IR_KDN_DataCode_BitOff_Send:
  8204+                          ; =============== function _IR_KDN_DataCode_BitOff_Send ends ============
  8205+                          
  8206+                          psect	text252,local,class=CODE,delta=2
  8207+                          global __ptext252
  8208+ 0AFD                     __ptext252:
  8209+                          	line	185
  8210+                          	signat	_IR_KDN_DataCode_BitOff_Send,88
  8211+                          	global	_IR_KDN_DataCode_BitOn_Send
  8212+                          
  8213+                          ; *************** function _IR_KDN_DataCode_BitOn_Send *****************
  8214+                          ; Defined at:
  8215+                          ;		line 158 in file "C:\Users\denjo\Documents\PIC\infrated_ray\ir_out.c"
  8216+                          ; Parameters:    Size  Location     Type
  8217+                          ;		None
  8218+                          ; Auto vars:     Size  Location     Type
  8219+                          ;		None
  8220+                          ; Return value:  Size  Location     Type
  8221+                          ;		None               void
  8222+                          ; Registers used:
  8223+                          ;		wreg, status,2, status,0
  8224+                          ; Tracked objects:
  8225+                          ;		On entry : 0/0
  8226+                          ;		On exit  : 0/0
  8227+                          ;		Unchanged: 0/0
  8228+                          ; Data sizes:     COMMON   BANK0   BANK1   BANK3   BANK2
  8229+                          ;      Locals:         1       0       0       0       0
  8230+                          ;      Temp:     1
  8231+                          ;      Total:    1
  8232+                          ; This function calls:
  8233+                          ;		__delay
  8234+                          ; This function is called by:
  8235+                          ;		_IR_KDN_format
  8236+                          ; This function uses a non-reentrant model
  8237+                          ; 
  8238+                          psect	text252
  8239+                          	file	"C:\Users\denjo\Documents\PIC\infrated_ray\ir_out.c"
  8240+                          	line	158
  8241+                          	global	__size_of_IR_KDN_DataCode_BitOn_Send
  8242+ 0018                     	__size_of_IR_KDN_DataCode_BitOn_Send	equ	__end_of_IR_KDN_DataCode_BitOn_Send-_IR_KDN_Da
      +                          taCode_BitOn_Send
  8243+                          ;ir_out.c: 157: void IR_KDN_DataCode_BitOn_Send(void)
  8244+                          ;ir_out.c: 158: {
  8245+                          	
  8246+ 0AFD                     _IR_KDN_DataCode_BitOn_Send:	
  8247+                          	opt stack 4
  8248+                          ; Regs used in _IR_KDN_DataCode_BitOn_Send: [wreg+status,2+status,0]
  8249+                          	line	159
  8250+                          	
  8251+ 0AFD                     l30002977:	
  8252+                          ;ir_out.c: 159: CCP2CON = 0x2C;
  8253+ 0AFD  302C               	movlw	(02Ch)
  8254+ 0AFE  1283               	bcf	status, 5	;RP0=0, select bank0
  8255+ 0AFF  1303               	bcf	status, 6	;RP1=0, select bank0
  8256+ 0B00  009D               	movwf	(29)	;volatile
  8257+                          	line	160
  8258+                          ;ir_out.c: 160: _delay((unsigned long)((420)*(4000000/4000000.0)));
  8259+ 0B01  308B               	movlw	139
  8260+ 0B02  00F0               movwf	(??_IR_KDN_DataCode_BitOn_Send+0+0),f
  8261+ 0B03                     u4157:
  8262+ 0B03  0BF0               decfsz	(??_IR_KDN_DataCode_BitOn_Send+0+0),f
  8263+ 0B04  2B03               	goto	u4157
  8264+ 0B05  2B06               	nop2	;nop
  8265+                          
  8266+                          	line	161
  8267+                          ;ir_out.c: 161: CCP2CON = 0x20;
  8268+ 0B06  3020               	movlw	(020h)
  8269+ 0B07  1283               	bcf	status, 5	;RP0=0, select bank0
  8270+ 0B08  1303               	bcf	status, 6	;RP1=0, select bank0
  8271+ 0B09  009D               	movwf	(29)	;volatile
  8272+                          	
  8273+ 0B0A                     l30002978:	
  8274+                          	line	162
  8275+                          ;ir_out.c: 162: PORTC &= ~0x02;
  8276+ 0B0A  30FD               	movlw	(0FDh)
  8277+ 0B0B  00F0               	movwf	(??_IR_KDN_DataCode_BitOn_Send+0+0)
  8278+ 0B0C  0870               	movf	(??_IR_KDN_DataCode_BitOn_Send+0+0),w
  8279+ 0B0D  0587               	andwf	(7),f	;volatile
  8280+                          	
  8281+ 0B0E                     l30002979:	
  8282+                          	line	163
  8283+                          ;ir_out.c: 163: _delay((unsigned long)((1100)*(4000000/4000000.0)));
  8284+ 0B0E  309D               	movlw	157
  8285+ 0B0F  00F0               movwf	(??_IR_KDN_DataCode_BitOn_Send+0+0),f
  8286+ 0B10                     u4167:
  8287+ 0B10  2B11               	nop2
  8288+ 0B11  2B12               	nop2
  8289+ 0B12  0BF0               decfsz	(??_IR_KDN_DataCode_BitOn_Send+0+0),f
  8290+ 0B13  2B10               	goto	u4167
  8291+                          
  8292+                          	
  8293+ 0B14                     l211:	
  8294+ 0B14  0008               	return
  8295+                          	opt stack 0
  8296+                          GLOBAL	__end_of_IR_KDN_DataCode_BitOn_Send
  8297+ 0B15                     	__end_of_IR_KDN_DataCode_BitOn_Send:
  8298+                          ; =============== function _IR_KDN_DataCode_BitOn_Send ends ============
  8299+                          
  8300+                          psect	text253,local,class=CODE,delta=2
  8301+                          global __ptext253
  8302+ 0A19                     __ptext253:
  8303+                          	line	166
  8304+                          	signat	_IR_KDN_DataCode_BitOn_Send,88
  8305+                          	global	_toggle_E
  8306+                          
  8307+                          ; *************** function _toggle_E *****************
  8308+                          ; Defined at:
  8309+                          ;		line 313 in file "C:\Users\denjo\Documents\PIC\infrated_ray\lcd.c"
  8310+                          ; Parameters:    Size  Location     Type
  8311+                          ;		None
  8312+                          ; Auto vars:     Size  Location     Type
  8313+                          ;		None
  8314+                          ; Return value:  Size  Location     Type
  8315+                          ;		None               void
  8316+                          ; Registers used:
  8317+                          ;		None
  8318+                          ; Tracked objects:
  8319+                          ;		On entry : 0/0
  8320+                          ;		On exit  : 0/0
  8321+                          ;		Unchanged: 0/0
  8322+                          ; Data sizes:     COMMON   BANK0   BANK1   BANK3   BANK2
  8323+                          ;      Locals:         0       0       0       0       0
  8324+                          ;      Temp:     0
  8325+                          ;      Total:    0
  8326+                          ; This function calls:
  8327+                          ;		Nothing
  8328+                          ; This function is called by:
  8329+                          ;		_lcd_init
  8330+                          ;		_lcd_clear
  8331+                          ;		_lcd_goto_posi
  8332+                          ;		_lcd_put_char
  8333+                          ; This function uses a non-reentrant model
  8334+                          ; 
  8335+                          psect	text253
  8336+                          	file	"C:\Users\denjo\Documents\PIC\infrated_ray\lcd.c"
  8337+                          	line	313
  8338+                          	global	__size_of_toggle_E
  8339+ 0005                     	__size_of_toggle_E	equ	__end_of_toggle_E-_toggle_E
  8340+                          ;lcd.c: 312: void toggle_E(void)
  8341+                          ;lcd.c: 313: {
  8342+                          	
  8343+ 0A19                     _toggle_E:	
  8344+                          	opt stack 3
  8345+                          ; Regs used in _toggle_E: []
  8346+                          	line	316
  8347+                          	
  8348+ 0A19                     l30002883:	
  8349+                          ;lcd.c: 316: RA5 = 1;
  8350+ 0A19  1283               	bcf	status, 5	;RP0=0, select bank0
  8351+ 0A1A  1303               	bcf	status, 6	;RP1=0, select bank0
  8352+ 0A1B  1685               	bsf	(45/8),(45)&7
  8353+                          	line	317
  8354+                          ;lcd.c: 317: RA5 = 0;
  8355+ 0A1C  1285               	bcf	(45/8),(45)&7
  8356+                          	
  8357+ 0A1D                     l260:	
  8358+ 0A1D  0008               	return
  8359+                          	opt stack 0
  8360+                          GLOBAL	__end_of_toggle_E
  8361+ 0A1E                     	__end_of_toggle_E:
  8362+                          ; =============== function _toggle_E ends ============
  8363+                          
  8364+                          psect	text254,local,class=CODE,delta=2
  8365+                          global __ptext254
  8366+ 0003                     __ptext254:
  8367+                          	line	320
  8368+                          	signat	_toggle_E,88
  8369+                          	global	btemp
  8370+ 007E                     	btemp set 07Eh


HI-TECH Software PICC Macro Assembler V9.70 build 5239 
Symbol Table                                                                                   Fri Jan 07 00:25:34 2011

         ??_IR_KDN_DataCode_BitOn_Send 0070                       ??_motion_control 0070  
                                    l2 0A99                                      l3 0490  
                                    l4 02DC                                      l7 02E7  
  __end_of_IR_NEC_DataCode_BitOff_Send 0AFD            _IR_NEC_DataCode_BitOff_Send 0AE6  
                                    pc 0002                   __end_of_lcd_put_char 0CE7  
                __size_of_ir_out_start 0095                      ??_lcd_put_ir_data 0073  
                                   _DA 04A5                                     _BF 04A0  
                                   _DC 0019                                     l24 033B  
                                   l16 031A                                     l43 03C5  
                                   l27 0344                                     l61 0477  
                                   l46 03CE                                     l80 0125  
                                   l64 0489                                     l91 015B  
                                   l83 0131                                     l75 0103  
                                   l92 016B                                     l84 0141  
                                   l76 0116                                     l69 01CF  
                                   l94 0172                                     l86 0148  
                                   l78 011E                                     l95 0180  
                                   l87 0156                                     l79 012C  
                                   l96 0179                                     l88 014F  
                                   l99 0185                                     _PD 001B  
                                   _RD 0C60                                     _UA 04A1  
                                   _TO 001C                                     _RW 04A2  
                                   _WR 0C61                                     fsr 0004  
                      __size_of___bmul 0019         ??_IR_NEC_DataCode_StopBit_Send 0070  
                          __pbssCOMMON 0079   __end_of_IR_NEC_DataCode_StopBit_Send 0ABD  
__size_of_IR_NEC_DataCode_StopBit_Send 0012           _IR_NEC_DataCode_StopBit_Send 0AAB  
           motion_control@motion_state 0070                           ??_ir_recieve 0071  
                                  l100 0195                                    l102 019C  
                                  l110 0A18                                    l103 01AA  
                                  l111 0B47                                    l200 0ABC  
                                  l104 01A3                                    l112 07FD  
                                  _C1R 083A                                    l201 0E48  
                                  l210 0B7D                                    _C2R 0842  
                                  l211 0B14                                    l212 0AE5  
                                  l108 0018                                    l213 0ACE  
                                  l214 0F6A                                    l223 0FFF  
                                  l143 05F9                                    l232 02CB  
                                  l233 0BE0                               __delay$0 0020  
                                  l234 0D28                                    l154 0637  
                                  l146 061B                                    l235 0CE6  
                                  l260 0A1D                                    l236 0CA5  
                                  l261 005A                                    l149 067B  
                                  l157 065E                                    l270 0BBC  
                                  l254 0C6B                                    l239 00F3  
                                  l274 0B2D                                    l266 0C0A  
                                  l197 0B9A                                    l198 0B61  
                                  l199 0AFC                                    _CKE 04A6  
                                  _CKP 00A4                                    _GIE 005F  
                                  _BOR 0470                                    _RA0 0028  
                                  _RA1 0029                                    _RB0 0030  
                                  _RA2 002A                                    _RB1 0031  
                                  _RA3 002B                                    _RC0 0038  
                                  _RB2 0032                                    _RA4 002C  
                                  _RC1 0039                                    _RB3 0033  
                                  _RA5 002D                                    _RC2 003A  
                                  _RB4 0034                                    _RA6 002E  
                                  _RC3 003B                                    _RB5 0035  
                                  _RA7 002F                                    _RC4 003C  
                                  _RB6 0036                 _IR_KDN_ReaderCode_Send 0B62  
                                  _RC5 003D                                    _RB7 0037  
                                  _RC6 003E                                    _RE3 004B  
                                  _RC7 003F                                    _FSR 0004  
                                  _PCL 0002                                    _PS0 0408  
                                  _PR2 0092                                    _PS1 0409  
                                  _PS2 040A                                    _PEN 048A  
                                  _RP0 001D                                    _IRP 001F  
                                  _RP1 001E                                    _HTS 047A  
                                  _SR0 0C2E                                    _SR1 0C2F  
                                  _SEN 0488                                    _SCS 0478  
                                  _PSA 040B                                    _LTS 0479  
                                  _VR0 04B8                                    _VR1 04B9  
                                  _VR2 04BA                                    _VR3 04BB  
                                  _POR 0471                                    _RX9 00C6  
                                  _SMP 04A7                                    _TX9 04C6  
                                  _WUE 0C39                                    _VRR 04BD  
                      __size_of_memcmp 0042                        __size_of_memcpy 002A  
                      __size_of_memset 0022                __end_of_key_input_check 01D0  
                                  fsr0 0004                                    indf 0000  
                    main@func_key_type 00BC                 __end_of_motion_control 0A19  
                                 _C1IE 046D                                   _C1IF 006D  
                                 _C2IE 046E                                   _C2IF 006E  
                                 _C1OE 083D                                   _C2OE 0845  
                                 _C1ON 083F                                   _C2ON 0847  
                                 _ADIE 0466                                   _ADIF 0066  
                                 _ADFM 04FF                                   _ADON 00F8  
              ?_IR_KDN_ReaderCode_Send 0024                                   _P1M0 00BE  
                                 _CHS0 00FA                                   _P1M1 00BF  
                                 _CHS1 00FB                                   _CHS2 00FC  
                                 _CHS3 00FD                                   _EEIE 046C  
                                 _EEIF 006C                                   _ANS0 0C40  
                                 _BRG0 04C8                                   _ANS1 0C41  
                                 _BRG1 04C9                                   _ANS2 0C42  
                                 _BRG2 04CA                                   _ANS3 0C43  
                                 _BRG3 04CB                                   _ANS4 0C44  
                                 _BRG4 04CC                                   _BRG5 04CD  
                                 _GCEN 048F                                   _BRG6 04CE  
                                 _BRG7 04CF                                   _ANS8 0C48  
                                 _BRG8 04D0                                   _ANS9 0C49  
                                 _BRG9 04D1                                   _BRGH 04C2  
                                 _T0IE 005D                                   _T0IF 005A  
                                 _CREN 00C4                                   _T0CS 040D  
                                 _FERR 00C2                                   _PDC0 04D8  
                                 _PDC1 04D9                                   _PDC2 04DA  
                                 _PDC3 04DB                                   _PDC4 04DC  
                                 _T0SE 040C                                   _PDC5 04DD  
                                 _CSRC 04C7                                   u3020 0C42  
                                 u3100 0056                                   _PDC6 04DE  
                                 _IOCB 0096                                   u3005 0CEE  
                                 u3101 0055                                   u3030 0C6B  
                                 u3110 0C0A                                   _INDF 0000  
                                 u3015 0D0C                                   u3031 0C6A  
                                 u3111 0C09                                   u3200 0311  
                                 u3120 0B1F                                   u3201 0310  
                                 u3121 0B1E                                   u3105 0052  
                                 u3210 0320                                   u3130 0B2C  
                                 u3211 031F                                   u3131 0B2B  
                                 u3115 0C06                                   u3300 036E  
                                 u3220 0326                                   u3140 02E2  
                                 u3045 0CAF                                   u3301 036D  
                                 u3221 0325                                   u3141 02E1  
                                 u3070 0C85                                   u3230 032C  
                                 u3150 02ED                                   u3055 0CCC  
                                 u3071 0C84                                   u4007 0E43  
                                 u3231 032B                                   u3151 02EC  
                                 u3080 0C94                                   u3400 03E0  
                                 u3320 0388                                   u3240 0336  
                                 u3160 02F3                                   u3081 0C93  
                                 u3065 0C75                                   u4017 0F65  
                                 u3401 03DF                                   u3321 0387  
                                 u3241 0335                                   u3161 02F2  
                                 u3314 037A                                   u3250 033F  
                                 u3170 02F9                                   u3090 0028  
                                 u2610 053A                                   u4107 0B6A  
                                 u4027 0CE4                                   u3315 0378  
                                 u3251 033E                                   u3171 02F8  
                                 u3091 0027                                   u2611 0539  
                                 u2540 0F39                                   u3420 03F8  
                                 u3260 034A                                   u3180 0302  
                                 u2700 062B                                   u2620 054E  
                                 u2604 051C                                   u4117 0B78  
                                 u4037 0AEC                                   u2541 0F38  
                                 u3421 03F7                                   u3261 0349  
                                 u3181 0301                                   u2701 062A  
                                 u2621 054D                                   u2605 0518  
                                 u2550 0F50                                   u2534 0F30  
                                 u3510 0477                                   u3414 03EA  
                                 u3350 03B9                                   u3334 0394  
                                 u3270 0350                                   u3190 0308  
                                 u2710 063D                                   u4127 0AC3  
                                 u4047 0AF9                                   u2551 0F4F  
                                 u2535 0F2E                                   u3511 0476  
                                 u3415 03E8                                   u3351 03B8  
                                 u3335 0392                                   u3271 034F  
                                 u3191 0307                                   u2711 063C  
                                 _PIE1 008C                                   u2560 0F5A  
                                 u3600 013E                                   u3520 047B  
                                 u3504 0466                                   u3440 0412  
                                 u3360 03C0                                   u3344 03A8  
                                 u3280 0356                                   u2800 06EA  
                                 u2720 065D                                   u2640 0572  
                                 _PIE2 008D                                   u4137 0AD5  
                                 u4057 0AB1                                   u2561 0F59  
                                 u3601 013D                                   u3521 047A  
                                 u3505 0464                                   u3441 0411  
                                 u3361 03BF                                   u3345 03A6  
                                 u3281 0355                                   u2801 06E9  
                                 u2721 065C                                   u2641 0571  
                                 u3610 0145                                   u3530 0487  
                                 u3434 0404                                   u3370 03C9  
                                 u2730 066E                                   u2650 0579  
                                 u2634 055C                                   u2570 04E7  
                                 u4147 0AE2                                   u4067 0B86  
                                 u3611 0144                                   u3531 0486  
                                 u3435 0402                                   u3371 03C8  
                                 u2731 066D                                   u2651 0578  
                                 u2635 0558                                   u2571 04E6  
                                 u3700 01A0                                   u3620 014C  
                                 u3540 048F                                   u3460 042C  
                                 u3380 03D4                                   u2820 070B  
                                 u2740 067B                                   u2580 0502  
                                 u4157 0B03                                   u4077 0B96  
                                 u3701 019F                                   u3621 014B  
                                 u3541 048E                                   u3461 042B  
                                 u3381 03D3                                   u2821 070A  
                                 u2741 067A                                   u2581 0501  
                                 u3710 01A7                                   u3630 0153  
                                 u3550 0014                                   u2910 0FB7  
                                 u3454 041E                                   u3390 03DA  
                                 u3294 0360                                   u2830 0741  
                                 u2814 06F6                                   u2750 0683  
                                 u2670 05DC                                   u2590 050E  
                                 u4167 0B10                                   u4087 0B4E  
                                 u3711 01A6                                   u3631 0152  
                                 u3551 0013                                   u2911 0FB6  
                                 u3455 041C                                   u3391 03D9  
                                 u3295 035E                                   u2831 0740  
                                 u2815 06F2                                   u2751 0682  
                                 u2671 05DB                                   u2591 050D  
                                 u3720 01C3                                   u3640 0168  
                                 u3560 0110                                   u3480 0446  
                                 u2840 07AC                                   u2760 06B2  
                                 u2680 05FF                                   u2664 05BB  
                                 u4097 0B5B                                   u3721 01C2  
                                 u3641 0167                                   u3561 010F  
                                 u2905 0F9E                                   u3481 0445  
                                 u2841 07AB                                   u2761 06B1  
                                 u2681 05FE                                   u2665 05B7  
                                 u3730 01CE                                   u3650 016F  
                                 u3570 011A                                   u3474 0438  
                                 u2850 07B3                                   u2770 06C0  
                                 u2690 061A                                   u3731 01CD  
                                 u3651 016E                                   u3571 0119  
                                 u3475 0436                                   u2851 07B2  
                                 u2771 06BF                                   u2691 0619  
                                 _PEIE 005E                                   u3740 0BBC  
                                 u3660 0176                                   u3580 0122  
                                 u2940 0FE8                                   u2860 07E3  
                                 u2780 06CC                                   u3741 0BBB  
                                 u3661 0175                                   u3581 0121  
                                 u2941 0FE7                                   u2925 0FBA  
                                 u2861 07E2                                   u2781 06CB  
                                 _INTE 005C                                   u3670 017D  
                                 u3590 0129                                   u2870 0F7F  
                                 u3494 0452                                   u2950 006C  
                                 u2790 06E1                                   _INTF 0059  
 __size_of_IR_KDN_DataCode_BitOff_Send 0017                                   u3671 017C  
                                 u3591 0128                                   u2935 0FD0  
                                 u2871 0F7E                                   u3495 0450  
                                 u2791 06E0                                   u3807 0595  
                                 _RBIE 005B                                   u3760 0E19  
                                 u3680 0192                                   u2960 0081  
                                 _RBIF 0058                                   u3761 0E18  
                                 u3745 0BB8                                   u3681 0191  
                                 u3817 05AB                                   u3770 0E30  
                                 u3754 0E10                                   u3690 0199  
                                 u2890 0F9B                                   u2970 00B0  
                                 u3771 0E2F                                   u3755 0E0E  
                                 u3691 0198                                   u2891 0F9A  
                                 u3907 0264                                   u2971 00AF  
                                 u3827 05CA                                   _RCIE 0465  
                                 u3780 0E3A                                   u2980 00CC  
                                 _RCEN 048B                                   _RCIF 0065  
                                 u3781 0E39                                   u2885 0F82  
                                 u3917 0284                                   u3837 0BDB  
                                 u2981 00CB                                   u2990 00E8  
                                 u3927 02A8                                   u3847 01D4  
                                 u2991 00E7                                   _PCON 008E  
                                 u3937 02C9                                   u3857 01ED  
                                 _PIR1 000C                                   _PIR2 000D  
                                 u3947 0B3E                                   u3867 0203  
                                 u3957 0108                                   u3877 0217  
                                 u3797 0585                                   u3967 0136  
                                 u3887 0228                                   u3977 0160  
                                 u3897 0246                                   _OERR 00C1  
                                 u3987 018A                                   u3997 0D26  
                                 _SCKP 0C3C                                   _RBPU 040F  
                         __pidataBANK0 0A7A                                   _RX9D 00C0  
                                 _TMR0 0001                                   _TMR2 0011  
                                 _WCOL 00A7                                   _SPEN 00C7  
                                 _RSEN 0489                                   _TX9D 04C0  
                                 _SREN 00C5                                   _OSTS 047B  
                                 _TUN0 0480                                   _TUN1 0481  
                                 _TUN2 0482                                   _TUN3 0483  
                                 _TUN4 0484                                   _STRA 04E8  
                                 _STRB 04E9                                   _STRC 04EA  
                                 _VREN 04BF                                   _STRD 04EB  
                                 _TRMT 04C1                                   _STOP 04A4  
                                 _TXIE 0464                                   _ZERO 001A  
                                 _WREN 0C62                                   _TXEN 04C5  
                                 _TXIF 0064                                   _VROE 04BE  
                                 _SYNC 04C4                                   _WPUB 0095  
          ?_IR_KDN_DataCode_BitOn_Send 0024                                   _VRSS 04BC  
                             _lcd_init 01D0                    ??_lcd_put_ir_format 0026  
                  key_input_check@code 0072                              ?_lcd_init 0072  
                                 _main 0491                                   btemp 007E  
       __end_of_IR_NEC_ReaderCode_Send 0B9B                            ir_recieve@i 0027  
                                 start 0000                             ??_lcd_init 0070  
                        ?_lcd_put_char 0026        __size_of_IR_NEC_ReaderCode_Send 001D  
                  start_initialization 0C0B                               _rcv_data 0048  
                             clear_ram 0A0B     __end_of_IR_KDN_DataCode_BitOn_Send 0B15  
           _IR_KDN_DataCode_BitOn_Send 0AFD                               _pre_data 0040  
              __end_of_lcd_put_ir_data 0C6C                                ?___bmul 0073  
                              ?__delay 0020                            _Timer_Reset 0A89  
                         main@key_code 00C0                               ??___bmul 0070  
                             ??__delay 0070                      _ir_func1_code_tbl 0EA9  
                         main@ir_state 00BD                              stringcode 0A08  
                  __end_of_Timer_Reset 0A9A                               _toggle_E 0A19  
                              _CM1CON0 0107                                _CM2CON0 0108  
                              _CCP1CON 0017                                _CM2CON1 0109  
                              _CCP2CON 001D                                ?_memcmp 0020  
                              ?_memcpy 0020                                _ACKSTAT 048E  
                              _BAUDCTL 0187                                ?_memset 0022  
                              _ECCPAS0 04E4                                _ECCPAS1 04E5  
                              _ECCPAS2 04E6                                _ECCPASE 04E7  
                                _C1CH0 0838                                  _C1CH1 0839  
                            _eep_rdata 00A0                               ??_memcmp 0070  
                                _C2CH0 0840                                  _C2CH1 0841  
                             ??_memcpy 0070                              ?_toggle_E 0020  
                    _ir_func2_code_tbl 0E49                               ??_memset 0070  
                                _DC1B0 00BC                                  _DC1B1 00BD  
                            _eep_wdata 0050                                  _C1SEN 0C2D  
                                _C2REN 0C2C                                  _C1POL 083C  
                                _C2POL 0844                         ?_IR_KDN_format 0028  
                                _C1OUT 083E                                  _C2OUT 0846  
                                _ABDEN 0C38               ??_IR_KDN_ReaderCode_Send 0070  
                                _ADCS0 00FE                                  _ADCS1 00FF  
                                _ADDEN 00C3                                  ?_main 0040  
                                _ACKEN 048C                                  _ACKDT 048D  
                            __ptext230 0B15                              __ptext231 01D0  
                            __ptext240 0CE7                              __ptext232 02CC  
                            __ptext241 0DE9                              __ptext233 0B2E  
                            __ptext225 0019                              __ptext250 0ABD  
                            __ptext242 0F09                              __ptext234 0F6B  
                            __ptext226 0A13                              __ptext251 0ACF  
                            __ptext243 0C6C                              __ptext235 0007  
                            __ptext227 005B                              __ptext252 0AFD  
                            __ptext244 0CA6                              __ptext236 00F4  
                    __size_of_lcd_init 00FC                              __ptext228 0BBD  
                            __ptext253 0A19                              __ptext245 0AE6  
                            __ptext237 0C3B                              __ptext229 0BE1  
                                _BCLIE 046B                              __ptext254 0003  
                            __ptext246 0AAB                              __ptext238 0B9B  
                                _BCLIF 006B                              __ptext247 0B7E  
                            __ptext239 0A89                              __ptext248 0B48  
                            __ptext249 0B62                                  _CCP2X 00ED  
                                _CCP2Y 00EC                         ?_lcd_goto_posi 0024  
                                _EEADR 010D          ??_IR_KDN_DataCode_BitOff_Send 0070  
                                _ANS10 0C4A                                  _EEDAT 010C  
                                _BRG10 04D2                                  _ANS11 0C4B  
                                _BRG11 04D3                                  _ANS12 0C4C  
                                _BRG12 04D4                                  _ANS13 0C4D  
                                _BRG13 04D5                                  _BRG14 04D6  
                                _BRG15 04D7                                  _BRG16 0C3B  
                                _CARRY 0018                                  _EEPGD 0C67  
                                _ANSEL 0188                  __size_of_lcd_put_char 0041  
                                _T1CON 0010                                  _IOCB0 04B0  
                                _T2CON 0012                                  _IOCB1 04B1  
                                _IOCB2 04B2                                  _IOCB3 04B3  
                                _IOCB4 04B4                                  _IOCB5 04B5  
                                _IOCB6 04B6                                  _IOCB7 04B7  
                                _T1GSS 0849                                _T1CKPS0 0084  
                              _T1CKPS1 0085                                  _IRCF0 047C  
                                _IRCF1 047D                                  _IRCF2 047E  
                      ??_IR_KDN_format 0024                                _T2CKPS0 0090  
                              _T2CKPS1 0091                                  _RABIE 005B  
                                _RABIF 0058                                  _RABPU 040F  
                                _RCIDL 0C3E                                  _FVREN 0C28  
                                _VCFG0 04FC                                  _VCFG1 04FD  
                                _RCREG 001A          ?_IR_KDN_DataCode_StopBit_Send 0024  
                      ??_lcd_goto_posi 0070                                  _SENDB 04C3  
                                _RCSTA 0018                         ?_IR_NEC_format 0026  
                                _OSFIE 046F                                  _OSFIF 006F  
                                _TMR1H 000F                             ??_toggle_E 0070  
                                _TMR1L 000E                                  _SPBRG 0099  
                                _PORTA 0005                                  _PORTB 0006  
                              _T1OSCEN 0083                                  _PORTC 0007  
                                _PORTE 0009                                  _PRSEN 04DF  
                                _SRCON 0185                      _ir_func3_code_tbl 0D29  
                                _START 04A3                                  _PULSR 0C2A  
                                _PULSS 0C2B                                  _SSPM0 00A0  
                            _lcd_clear 0BBD                                  _SSPM1 00A1  
                                _SSPM2 00A2                                  _SSPM3 00A3  
                                _TRISA 0085                                  _TRISB 0086  
                                _TRISC 0087                                  _SSPIE 0463  
                                _TRISE 0089                                  _SSPIF 0063  
                                _SSPEN 00A5                                  _VRCON 0097  
                                _WPUB0 04A8                                  _WPUB1 04A9  
                                _WPUB2 04AA                                  _WPUB3 04AB  
                                _WPUB4 04AC                                  _SSPOV 00A6  
                                _WPUB5 04AD                                  _WPUB6 04AE  
                                _WPUB7 04AF                                  _WRERR 0C63  
                                _TXREG 0019                      __end_of_lcd_clear 0BE1  
                                _TXSTA 0098                __size_of_motion_control 0006  
                   IR_KDN_format@tbl_p 0028                        ??_IR_NEC_format 0072  
 __size_of_IR_NEC_DataCode_BitOff_Send 0017                              __pstrings 0A00  
                        __pidataCOMMON 0A1E                 _IR_NEC_ReaderCode_Send 0B7E  
                    _ir_func4_code_tbl 0D89                             ?_lcd_clear 0072  
                       __pcstackCOMMON 0070                               memcmp@s1 0072  
                             memcmp@s2 0020                                _OSCTUNE 0090  
                              _PWM1CON 009B                               memcpy@d1 0071  
                            _cpu_sleep 0B2E                               memcpy@s1 0020  
                    __end_of_cpu_sleep 0B48                           ?_Timer_Reset 0070  
                              _PSTRCON 009D                                _SSPCON2 0091  
                     lcd_put_char@data 0024                                  main@i 00BF  
                             memset@p1 0020                                _ULPWUIE 046A  
                              _ULPWUIF 006A                                _SSPSTAT 0094  
                              _TOUTPS0 0093                                _TOUTPS1 0094  
                              _TOUTPS2 0095                                _TOUTPS3 0096  
            __end_of_lcd_put_ir_format 00F4                       lcd_put_char@temp 0025  
                              _STRSYNC 04EC                                  pclath 000A  
                           ?_cpu_sleep 0071                         ??_ir_out_start 002A  
                          ??_lcd_clear 0070                      __size_of_toggle_E 0005  
                                status 0003                ?_IR_NEC_ReaderCode_Send 0024  
                 __size_of_Timer_Reset 0011                     lcd_put_ir_format@i 003D  
                  __size_of_ir_recieve 01C5                            ??_cpu_sleep 0070  
                          _lcd_put_hex 0C6C                            _led_control 0007  
               __size_of_IR_KDN_format 0062                 __size_of_lcd_goto_posi 0042  
                  __end_of_lcd_put_hex 0CA6          ??_IR_NEC_DataCode_BitOff_Send 0070  
                        __size_of_main 036F                             __pbssBANK0 0040  
                           __pbssBANK1 00A0                    __end_of_led_control 0019  
                             l30003000 0A14                               l30003001 0BE2  
                             l30003010 0B25                               l30003002 0BE9  
                             l30003011 0B27                               l30003003 0BF2  
                             l30003100 014C                               l30003020 0302  
                             l30003012 0B2C                               l30003004 0BF6  
                             l30003101 0153                               l30003021 0308  
                             l30003005 0BFA                               l30003110 0188  
                             l30003102 0156                               l30003030 0326  
                             l30003022 030B                               l30003014 02CC  
                             l30003006 0B16                               l30003111 018C  
                             l30003103 015E                               l30003023 0311  
                             l30003015 02E2                               l30003007 0B1B  
                             l30003112 0192                               l30003104 0162  
                             l30003040 0350                               l30003016 02ED  
                             l30003008 0B1F                               l30003121 01C4  
                             l30003113 0199                               l30003105 0168  
                             l30003041 0356                               l30003033 032D  
                             l30003017 02F3                               l30003009 0B23  
                             l30003130 0A95                               l30003122 01C8  
                             l30003114 01A0                               l30003106 016F  
                             l30003050 03C0                               l30003042 0368  
                             l30003034 0330                               l30003026 0313  
                             l30003018 02F9                               l30003131 0A96  
                             l30003123 01CE                               l30003115 01A7  
                             l30003107 0176                               l30003043 036E  
                             l30003035 0336                               l30003019 02FC  
                             l30003140 0DFA                               l30003116 01AA  
                             l30003108 017D                               l30003060 0412  
                             l30003044 0382                               l30003028 0315  
                             l30003141 0E19                               l30003133 0DE9  
                             l30003125 0B9E                               l30003109 0180  
                             l30003061 0426                               l30003053 03C9  
                             l30003045 0388                               l30003029 0320  
                             l30003150 0AE6                               l30003142 0E1F  
                             l30003134 0DEE                               l30003126 0BA1  
                             l30003118 01AF                               l30003070 0487  
                             l30003062 042C                               l30003054 03D4  
                             l30003046 039C                               l30003038 033F  
                             l30003151 0AF3                               l30003143 0E24  
                             l30003127 0BA8                               l30003119 01BD  
                             l30003063 0440                               l30003055 03DA  
                             l30003047 03AF                               l30003039 034A  
                             l30003152 0AF7                               l30003144 0E2A  
                             l30003128 0BAC                               l30003080 0B46  
                             l30003064 0446                               l30003056 03E0  
                             l30003048 03B3                               l30003161 0B48  
                             l30003145 0E30                               l30003137 0DF5  
                             l30003129 0A89                               l30003065 045A  
                             l30003057 03F2                               l30003049 03BA  
                             l30003162 0B55                               l30003154 0AAB  
                             l30003146 0E34                               l30003090 010A  
                             l30003082 0008                               l30003074 0B2E  
                             l30003058 03F8                               l30003066 046D  
                             l30003163 0B59                               l30003155 0AB8  
                             l30003147 0E3A                               l30003091 0110  
                             l30003083 000E                               l30003075 0B34  
                             l30003067 0471                               l30003059 040C  
                             l30003148 0E3F                               l30003092 011A  
                             l30003084 0014                               l30003076 0B37  
                             l30003068 047B                               l30002700 0491  
                             l30003157 0B7E                               l30003093 0122  
                             l30003085 00F4                               l30003077 0B3A  
                             l30003069 0481                               l30002701 0495  
                             l30003158 0B8E                               l30003094 0129  
                             l30003086 00F6                               l30003078 0B3B  
                             l30002710 04C4                               l30002702 049A  
                             l30003159 0B92                               l30003095 012C  
                             l30003087 00FD                               l30003079 0B43  
                             l30002711 04C9                               l30002703 04AF  
                             l30003096 0134                               l30002800 0728  
                             l30002720 04FC                               l30002712 04CE  
                             l30002704 04B3                               l30003097 0138  
                             l30003089 0106                               l30002801 0734  
                             l30002721 0502                               l30002713 04CF  
                             l30002705 04B5                               l30003098 013E  
                             l30002810 077B                               l30002802 073B  
                             l30002730 054E                               l30002722 0508  
                             l30002714 04D2                               l30002706 04B9  
                             l30003099 0145                               l30002803 0741  
                             l30002731 0550                               l30002723 050E  
                             l30002715 04D9                               l30002707 04BD  
                             l30002900 0220                               l30002820 07D5  
                             l30002812 0782                               l30002804 0746  
                             l30002740 0589                               l30002724 0510  
                             l30002716 04E0                               l30002708 04BF  
                             l30002901 0221                               l30002821 07DD  
                             l30002813 0795                               l30002805 0756  
                             l30002741 059A                               l30002733 0565  
                             l30002725 0526                               l30002717 04E7  
                             l30002709 04C1                               l30002830 0FB1  
                             l30002910 0244                               l30002902 0226  
                             l30002822 07E3                               l30002814 07AC  
                             l30002806 075F                               l30002750 05E0  
                             l30002734 056D                               l30002718 04EE  
                             l30002726 0533                               l30002831 0FB7  
                             l30002911 0248                               l30002903 022A  
                             l30002823 07E8                               l30002815 07B3  
                             l30002807 0766                               l30002751 05EC  
                             l30002727 053A                               l30002719 04F4  
                             l30002832 0FCD                               l30002920 026D  
                             l30002912 024E                               l30002904 0230  
                             l30002840 008E                               l30002824 07EE  
                             l30002816 07B8                               l30002808 076D  
                             l30002760 0625                               l30002752 05FF  
                             l30002744 059F                               l30002728 0540  
                             l30002833 0FE2                               l30002825 0F6E  
                             l30002921 026E                               l30002913 0250  
                             l30002905 0231                               l30002841 0095  
                             l30002817 07BF                               l30002809 0774  
                             l30002761 062B                               l30002753 060B  
                             l30002745 05A5                               l30002737 0573  
                             l30002729 0548                               l30002690 0F18  
                             l30002834 0FE8                               l30002826 0F7A  
                             l30002930 0296                               l30002922 0273  
                             l30002914 0255                               l30002906 0237  
                             l30002850 00B6                               l30002818 07CA  
                             l30002770 065D                               l30002762 062C  
                             l30002754 0613                               l30002746 05AF  
                             l30002738 0579                               l30002691 0F39  
                             l30002683 0F09                               l30002835 0FF4  
                             l30002827 0F7F                               l30002931 029C  
                             l30002923 0279                               l30002915 025B  
                             l30002907 023D                               l30002851 00C0  
                             l30002771 0662                               l30002755 0616  
                             l30002747 05CE                               l30002739 057F  
                             l30002692 0F3F                               l30002684 0F0E  
                             l30002828 0F95                               l30002940 02BE  
                             l30002932 029D                               l30002924 027A  
                             l30002916 025C                               l30002908 023E  
                             l30002852 00C6                               l30002844 009A  
                             l30002860 00E9                               l30002772 0666  
                             l30002756 061A                               l30002748 05D6  
                             l30002693 0F44                               l30002861 0CE8  
                             l30002829 0F9B                               l30002941 02C2  
                             l30002933 02A1                               l30002925 027B  
                             l30002917 025D                               l30002909 023F  
                             l30002853 00CD                               l30002845 00A4  
                             l30002837 005E                               l30002773 0667  
                             l30002765 063D                               l30002757 061F  
                             l30002749 05DC                               l30002694 0F4A  
                             l30002870 0D14                               l30002862 0CEB  
                             l30002934 02A6                               l30002926 0289  
                             l30002918 0262                               l30002950 0BD2  
                             l30002846 00AA                               l30002838 0064  
                             l30002790 06C0                               l30002782 068A  
                             l30002774 0668                               l30002766 0644  
                             l30002758 0623                               l30002695 0F50  
                             l30002687 0F13                               l30002871 0D1A  
                             l30002863 0CF5                               l30002935 02AA  
                             l30002927 028F                               l30002919 026C  
                             l30002943 0BBD                               l30002847 00B1  
                             l30002839 0079                               l30002791 06C6  
                             l30002783 068E                               l30002775 066E  
                             l30002767 064E                               l30002759 0624  
                             l30002960 0CD4                               l30002952 0CA9  
                             l30002696 0F54                               l30002872 0D1B  
                             l30002864 0CF6                               l30002880 0C5B  
                             l30002936 02B0                               l30002928 0290  
                             l30002944 0BC3                               l30002856 00D2  
                             l30002792 06CC                               l30002784 0696  
                             l30002776 066F                               l30002768 0656  
                             l30002961 0CD8                               l30002953 0CAC  
                             l30002697 0F5A                               l30002873 0D24  
                             l30002865 0CFC                               l30002881 0C61  
                             l30002937 02B2                               l30002929 0291  
                             l30002945 0BC4                               l30002857 00DC  
                             l30002793 06D7                               l30002785 0697  
                             l30002777 0675                               l30002769 0659  
                             l30002962 0CD9                               l30002954 0CB6  
                             l30002970 0C88                               l30002698 0F5F  
                             l30002866 0CFD                               l30002882 0C65  
                             l30002938 02B7                               l30002890 01F1  
                             l30002946 0BC5                               l30002858 00E2  
                             l30002794 06E1                               l30002786 06A6  
                             l30002778 067C                               l30002883 0A19  
                             l30002963 0CE2                               l30002955 0CBA  
                             l30002971 0C8B                               l30002867 0D01  
                             l30002875 0C3E                               l30002939 02BD  
                             l30002891 01F7                               l30002947 0BCA  
                             l30002795 06EA                               l30002787 06AC  
                             l30002779 0683                               l30002956 0CBB  
                             l30002972 0C8E                               l30002868 0D06  
                             l30002876 0C42                               l30002892 01F8  
                             l30002884 01D0                               l30002948 0BD0  
                             l30002796 06FF                               l30002788 06B2  
                             l30002981 0ACF                               l30002957 0CBF  
                             l30002973 0C94                               l30002965 0C6F  
                             l30002869 0D09                               l30002877 0C48  
                             l30002893 0201                               l30002885 01D9  
                             l30002949 0BD1                               l30002797 070B  
                             l30002789 06BA                               l30002982 0ADC  
                             l30002990 0ACA                               l30002958 0CC4  
                             l30002974 0C97                               l30002966 0C72  
                             l30002878 0C50                               l30002894 0205  
                             l30002886 01DF                               l30002798 0713  
                             l30002983 0AE0                               l30002959 0CC9  
                             l30002975 0C9D                               l30002967 0C7C  
                             l30002879 0C55                               l30002895 020B  
                             l30002887 01E0                               l30002799 0720  
                             l30002968 0C7F                               l30002896 020C  
                             l30002888 01E4                               l30002992 001A  
                             l30002977 0AFD                               l30002985 0B62  
                             l30002969 0C85                               l30002897 0210  
                             l30002889 01E9                               l30002993 001B  
                             l30002978 0B0A                               l30002986 0B72  
                             l30002898 0219                               l30002994 0028  
                             l30002979 0B0E                               l30002987 0B76  
                             l30002899 021F                               l30002996 003C  
                             l30002989 0ABD                               l30002997 0044  
                             l30002998 0056                            __stringbase 0A0B  
  __size_of_IR_NEC_DataCode_BitOn_Send 001A                 __size_of_IR_NEC_format 0060  
             __size_of_key_input_check 00DC                   ir_out_start@key_code 0031  
                 ir_out_start@func_key 0030                                 ??_main 003E  
                     lcd_put_ir_data@i 002B                             __pmaintext 0491  
         ??_IR_NEC_DataCode_BitOn_Send 0070               ??_IR_NEC_ReaderCode_Send 0070  
                   ir_out_start@data_p 002E                           ?_lcd_put_hex 0072  
                       ___bmul@product 0071                  lcd_put_ir_format@F844 0076  
                lcd_put_ir_format@F846 005F                  lcd_put_ir_format@F848 0057  
                            _rx_format 0079                           ?_led_control 0072  
                   ir_out_start@format 002D                                 _C1RSEL 084D  
                       __end_of___bmul 0B2E                                 _C2RSEL 084C  
                   __size_of_lcd_clear 0024                               stringdir 0A0A  
                               _C2SYNC 0848                               stringtab 0A00  
                               _ADCON0 001F                                 _ADCON1 009F  
                               _ABDOVF 0C3F                                 _CCP1M0 00B8  
                               _CCP1M1 00B9                                 _CCP1M2 00BA  
                               _CCP1M3 00BB                                 _CCP2M0 00E8  
                               _CCP2M1 00E9                                 _CCP2M2 00EA  
                               _CCP2M3 00EB                                 _CCP1IE 0462  
                               _CCP1IF 0062                                 _CCP2IE 0468  
                               _CCP2IF 0068                                 _ADRESH 001E  
                               _EEADRH 010F                                 _ADRESL 009E  
                               _EEADRL 010D                                 _EEDATA 010C  
                               _ECCPAS 009C                                 _CCPR1H 0016  
                               _EEDATH 010E                                 _CCPR2H 001C  
                               _CCPR1L 0015                                 _CCPR2L 001B  
                               _EECON1 018C                                 _EECON2 018D  
                        ??_Timer_Reset 0070           ?_IR_KDN_DataCode_BitOff_Send 0024  
                               _ANSELH 0189                                 _MC1OUT 084F  
                               _MC2OUT 084E                lcd_put_ir_format@format 003C  
                         __end_of_main 0800                   __size_of_lcd_put_hex 003A  
                               _T1GINV 0087                                 _GODONE 00F9  
       ??_IR_KDN_DataCode_StopBit_Send 0070                   end_of_initialization 0C37  
                 __size_of_led_control 0012   __end_of_IR_KDN_DataCode_StopBit_Send 0ACF  
__size_of_IR_KDN_DataCode_StopBit_Send 0012           _IR_KDN_DataCode_StopBit_Send 0ABD  
                       __end_of_memcmp 005B                                 _T1SYNC 0082  
                       __end_of_memcpy 0C0B                                 _INTEDG 040E  
                               _PCLATH 000A                                 _INTCON 000B  
                         _ir_out_start 0F6B                         __end_of_memset 0BBD  
                     __end_of_lcd_init 02CC                          __pcstackBANK0 0020  
                        __pcstackBANK1 00BC                          lcd_put_hex@hi 0028  
                        lcd_put_hex@lo 0027                     __size_of_cpu_sleep 001A  
                               _SBOREN 0474                                 _OSCCON 008F  
                              memcmp@n 0021                                 _TMR1GE 0086  
                               _TMR1IE 0460                                 _TMR1IF 0060  
                               _TMR1CS 0081                                 _TMR2IE 0461  
                               _TMR2IF 0061                                 _PSSAC0 04E2  
                               _PSSAC1 04E3                                 _PSSBD0 04E0  
                               _PSSBD1 04E1                                 _SPBRGH 009A  
                               _OPTION 0081                                 _TMR1ON 0080  
                               _TMR2ON 0092                                memcpy@d 0073  
                              memcpy@n 0021                                memcpy@s 0072  
                               _WDTCON 0105                                 _WDTPS0 0829  
                               _WDTPS1 082A                                 _WDTPS2 082B  
                               _WDTPS3 082C                                 _SSPADD 0093  
                               _TRISA0 0428                                 _TRISA1 0429  
                               _TRISB0 0430                                 _TRISA2 042A  
                               _TRISB1 0431                                 _TRISA3 042B  
                               _TRISC0 0438                                 _TRISB2 0432  
                               _TRISA4 042C                                 _TRISC1 0439  
                               _TRISB3 0433                                 _TRISA5 042D  
                               _TRISC2 043A                                 _TRISB4 0434  
                               _TRISA6 042E                                 _TRISC3 043B  
                               _TRISB5 0435                                 _TRISA7 042F  
                               _TRISC4 043C                                 _TRISB6 0436  
                               _TRISC5 043D                                 _TRISB7 0437  
                               _TRISC6 043E                                 _TRISE3 044B  
                               _TRISC7 043F                                 _STATUS 0003  
                               _SSPCON 0014                                 _SSPBUF 0013  
                              init_ram 0A9E                                 _SWDTEN 0828  
                              memset@c 0022                                 _ULPWUE 0475  
                       IR_KDN_format@i 0073                         IR_KDN_format@j 0072  
                              memset@n 0024                                 _SSPMSK 0093  
                              memset@p 0021               __size_of_lcd_put_ir_data 0031  
                 __end_of_ir_out_start 1000          ?_IR_NEC_DataCode_StopBit_Send 0024  
                  lcd_put_ir_data@size 002C                        lcd_put_hex@data 0026  
                       ??_lcd_put_char 0070                                 ___bmul 0B15  
                      _key_input_check 00F4            ?_IR_NEC_DataCode_BitOn_Send 0024  
                     __end_of_toggle_E 0A1E                                 _memcmp 0019  
                       IR_NEC_format@i 0025                         IR_NEC_format@j 0024  
                     ?_key_input_check 0073                                 _memcpy 0BE1  
                    _lcd_put_ir_format 005B                   led_control@led_state 0071  
                               _memset 0B9B                          _IR_KDN_format 0F09  
                            init_fetch 0A9A                          _lcd_goto_posi 0CE7  
               lcd_put_ir_data@ir_char 002A                 lcd_put_ir_data@ir_data 0029  
  __end_of_IR_KDN_DataCode_BitOff_Send 0AE6            _IR_KDN_DataCode_BitOff_Send 0ACF  
                 lcd_put_ir_format@kdn 002A                   lcd_put_ir_format@nec 0039  
                               clrloop 0A0C                   lcd_put_ir_format@ukn 0032  
                        _IR_NEC_format 0DE9           ?_IR_NEC_DataCode_BitOff_Send 0024  
   __end_of_IR_NEC_DataCode_BitOn_Send 0B62             _IR_NEC_DataCode_BitOn_Send 0B48  
           __size_of_lcd_put_ir_format 0099                      ??_key_input_check 0070  
                    lcd_goto_posi@addr 0071                    ___bmul@multiplicand 0073  
                       main@eep_offset 00BE                          ??_lcd_put_hex 0071  
                    lcd_goto_posi@temp 0072                          ??_led_control 0070  
                           _ir_recieve 02CC                          __pstringtext1 0003  
                        __pstringtext2 0EA9                          __pstringtext3 0E49  
                        __pstringtext4 0D29                          __pstringtext5 0D89  
                   __end_of_ir_recieve 0491                  __end_of_IR_KDN_format 0F6B  
                   IR_NEC_format@tbl_p 0026                       key_input_check@i 0071  
                __end_of_lcd_goto_posi 0D29                  __end_of_IR_NEC_format 0E49  
       __end_of_IR_KDN_ReaderCode_Send 0B7E    __size_of_IR_KDN_DataCode_BitOn_Send 0018  
                   ?_lcd_put_ir_format 003E                          ?_ir_out_start 0031  
                      _lcd_put_ir_data 0C3B                            ?_ir_recieve 0073  
      __size_of_IR_KDN_ReaderCode_Send 001C                      ___bmul@multiplier 0072  
                       _motion_control 0A13                       ?_lcd_put_ir_data 002C  
                        _ir_format_tbl 0003                        ?_motion_control 0071  
                         _lcd_put_char 0CA6                            __pdataBANK0 0057  
                     ir_recieve@s_data 0026                           __pdataCOMMON 0076  
